---
triple:          'arm64-apple-darwin'
binary-path:     server
relocations:
  - { offsetInCU: 0x3F, offset: 0x3F, size: 0x8, addend: 0x0, symName: _online_clients, symObjAddr: 0xBF650, symBinAddr: 0x1000180C0, symSize: 0x0 }
  - { offsetInCU: 0xC2B4, offset: 0xC2B4, size: 0x8, addend: 0x0, symName: __ZNSt3__119piecewise_constructE, symObjAddr: 0x10FCB, symBinAddr: 0x10001371F, symSize: 0x0 }
  - { offsetInCU: 0x13FA3, offset: 0x13FA3, size: 0x8, addend: 0x0, symName: __ZNSt3__124__put_character_sequenceB8ue170006IcNS_11char_traitsIcEEEERNS_13basic_ostreamIT_T0_EES7_PKS4_m, symObjAddr: 0x72DC, symBinAddr: 0x1000094FC, symSize: 0x1EC }
  - { offsetInCU: 0x17C83, offset: 0x17C83, size: 0x8, addend: 0x0, symName: __ZNSt3__1lsB8ue170006INS_11char_traitsIcEEEERNS_13basic_ostreamIcT_EES6_PKc, symObjAddr: 0x270, symBinAddr: 0x100002490, symSize: 0x48 }
  - { offsetInCU: 0x17CC9, offset: 0x17CC9, size: 0x8, addend: 0x0, symName: __ZNSt3__14endlB8ue170006IcNS_11char_traitsIcEEEERNS_13basic_ostreamIT_T0_EES7_, symObjAddr: 0xA50, symBinAddr: 0x100002C70, symSize: 0x58 }
  - { offsetInCU: 0x17D09, offset: 0x17D09, size: 0x8, addend: 0x0, symName: __ZNSt3__1lsB8ue170006IcNS_11char_traitsIcEENS_9allocatorIcEEEERNS_13basic_ostreamIT_T0_EES9_RKNS_12basic_stringIS6_S7_T1_EE, symObjAddr: 0xB10, symBinAddr: 0x100002D30, symSize: 0x4C }
  - { offsetInCU: 0x18BEE, offset: 0x18BEE, size: 0x8, addend: 0x0, symName: __ZNSt3__17getlineB8ue170006IcNS_11char_traitsIcEENS_9allocatorIcEEEERNS_13basic_istreamIT_T0_EES9_RNS_12basic_stringIS6_S7_T1_EE, symObjAddr: 0xCFC, symBinAddr: 0x100002F1C, symSize: 0x5C }
  - { offsetInCU: 0x18FC2, offset: 0x18FC2, size: 0x8, addend: 0x0, symName: __ZNSt3__1rsB8ue170006IcNS_11char_traitsIcEENS_9allocatorIcEEEERNS_13basic_istreamIT_T0_EES9_RNS_12basic_stringIS6_S7_T1_EE, symObjAddr: 0xE80, symBinAddr: 0x1000030A0, symSize: 0x308 }
  - { offsetInCU: 0x1908F, offset: 0x1908F, size: 0x8, addend: 0x0, symName: __ZNSt3__1eqB8ue170006INS_9allocatorIcEEEEbRKNS_12basic_stringIcNS_11char_traitsIcEET_EES9_, symObjAddr: 0x1188, symBinAddr: 0x1000033A8, symSize: 0x148 }
  - { offsetInCU: 0x192C4, offset: 0x192C4, size: 0x8, addend: 0x0, symName: __ZNSt3__1plB8ue170006IcNS_11char_traitsIcEENS_9allocatorIcEEEENS_12basic_stringIT_T0_T1_EEOS9_RKS9_, symObjAddr: 0x2474, symBinAddr: 0x100004694, symSize: 0x40 }
  - { offsetInCU: 0x1931C, offset: 0x1931C, size: 0x8, addend: 0x0, symName: __ZNSt3__1plB8ue170006IcNS_11char_traitsIcEENS_9allocatorIcEEEENS_12basic_stringIT_T0_T1_EEOS9_PKS6_, symObjAddr: 0x24B4, symBinAddr: 0x1000046D4, symSize: 0x40 }
  - { offsetInCU: 0x19374, offset: 0x19374, size: 0x8, addend: 0x0, symName: __ZNSt3__1neB8ue170006ERKNS_19__hash_map_iteratorINS_15__hash_iteratorIPNS_11__hash_nodeINS_17__hash_value_typeIiNS_12basic_stringIcNS_11char_traitsIcEENS_9allocatorIcEEEEEEPvEEEEEESH_, symObjAddr: 0x2564, symBinAddr: 0x100004784, symSize: 0x30 }
  - { offsetInCU: 0x193B1, offset: 0x193B1, size: 0x8, addend: 0x0, symName: __ZNSt3__1neB8ue170006ERKNS_19__hash_map_iteratorINS_15__hash_iteratorIPNS_11__hash_nodeINS_17__hash_value_typeINS_12basic_stringIcNS_11char_traitsIcEENS_9allocatorIcEEEES9_EEPvEEEEEESH_, symObjAddr: 0x3598, symBinAddr: 0x1000057B8, symSize: 0x30 }
  - { offsetInCU: 0x193EE, offset: 0x193EE, size: 0x8, addend: 0x0, symName: __ZNSt3__1eqB8ue170006ERKNS_19__hash_map_iteratorINS_15__hash_iteratorIPNS_11__hash_nodeINS_17__hash_value_typeIiP6ssl_stEEPvEEEEEESD_, symObjAddr: 0x3EB0, symBinAddr: 0x1000060D0, symSize: 0x30 }
  - { offsetInCU: 0x1942B, offset: 0x1942B, size: 0x8, addend: 0x0, symName: __ZNSt3__1eqB8ue170006IcNS_11char_traitsIcEENS_9allocatorIcEEEEbRKNS_12basic_stringIT_T0_T1_EEPKS6_, symObjAddr: 0x3F44, symBinAddr: 0x100006164, symSize: 0xAC }
  - { offsetInCU: 0x19668, offset: 0x19668, size: 0x8, addend: 0x0, symName: __ZNSt3__119__libcpp_deallocateB8ue170006EPvmm, symObjAddr: 0x4AD4, symBinAddr: 0x100006CF4, symSize: 0x60 }
  - { offsetInCU: 0x196CD, offset: 0x196CD, size: 0x8, addend: 0x0, symName: __ZNSt3__124__is_overaligned_for_newB8ue170006Em, symObjAddr: 0x4B34, symBinAddr: 0x100006D54, symSize: 0x20 }
  - { offsetInCU: 0x196FB, offset: 0x196FB, size: 0x8, addend: 0x0, symName: __ZNSt3__127__do_deallocate_handle_sizeB8ue170006IJSt11align_val_tEEEvPvmDpT_, symObjAddr: 0x4B54, symBinAddr: 0x100006D74, symSize: 0x30 }
  - { offsetInCU: 0x1974E, offset: 0x1974E, size: 0x8, addend: 0x0, symName: __ZNSt3__127__do_deallocate_handle_sizeB8ue170006IJEEEvPvmDpT_, symObjAddr: 0x4B84, symBinAddr: 0x100006DA4, symSize: 0x28 }
  - { offsetInCU: 0x1978C, offset: 0x1978C, size: 0x8, addend: 0x0, symName: __ZNSt3__124__libcpp_operator_deleteB8ue170006IJPvSt11align_val_tEEEvDpT_, symObjAddr: 0x4BAC, symBinAddr: 0x100006DCC, symSize: 0x2C }
  - { offsetInCU: 0x197D5, offset: 0x197D5, size: 0x8, addend: 0x0, symName: __ZNSt3__124__libcpp_operator_deleteB8ue170006IJPvEEEvDpT_, symObjAddr: 0x4BD8, symBinAddr: 0x100006DF8, symSize: 0x24 }
  - { offsetInCU: 0x1983D, offset: 0x1983D, size: 0x8, addend: 0x0, symName: __ZNSt3__112__to_addressB8ue170006IKcEEPT_S3_, symObjAddr: 0x4CA8, symBinAddr: 0x100006EC8, symSize: 0x14 }
  - { offsetInCU: 0x198D8, offset: 0x198D8, size: 0x8, addend: 0x0, symName: __ZNSt3__17launderB8ue170006INS_4pairIKiP6ssl_stEEEEPT_S7_, symObjAddr: 0x5730, symBinAddr: 0x100007950, symSize: 0x24 }
  - { offsetInCU: 0x1990F, offset: 0x1990F, size: 0x8, addend: 0x0, symName: __ZNSt3__19__launderB8ue170006INS_4pairIKiP6ssl_stEEEEPT_S7_, symObjAddr: 0x5754, symBinAddr: 0x100007974, symSize: 0x14 }
  - { offsetInCU: 0x19979, offset: 0x19979, size: 0x8, addend: 0x0, symName: __ZNSt3__17launderB8ue170006INS_4pairIKiNS_12basic_stringIcNS_11char_traitsIcEENS_9allocatorIcEEEEEEEEPT_SB_, symObjAddr: 0x6384, symBinAddr: 0x1000085A4, symSize: 0x24 }
  - { offsetInCU: 0x199B0, offset: 0x199B0, size: 0x8, addend: 0x0, symName: __ZNSt3__19__launderB8ue170006INS_4pairIKiNS_12basic_stringIcNS_11char_traitsIcEENS_9allocatorIcEEEEEEEEPT_SB_, symObjAddr: 0x63A8, symBinAddr: 0x1000085C8, symSize: 0x14 }
  - { offsetInCU: 0x19A1A, offset: 0x19A1A, size: 0x8, addend: 0x0, symName: __ZNSt3__17launderB8ue170006INS_4pairIKNS_12basic_stringIcNS_11char_traitsIcEENS_9allocatorIcEEEES7_EEEEPT_SB_, symObjAddr: 0x6FD0, symBinAddr: 0x1000091F0, symSize: 0x24 }
  - { offsetInCU: 0x19A51, offset: 0x19A51, size: 0x8, addend: 0x0, symName: __ZNSt3__19__launderB8ue170006INS_4pairIKNS_12basic_stringIcNS_11char_traitsIcEENS_9allocatorIcEEEES7_EEEEPT_SB_, symObjAddr: 0x6FF4, symBinAddr: 0x100009214, symSize: 0x14 }
  - { offsetInCU: 0x19A88, offset: 0x19A88, size: 0x8, addend: 0x0, symName: __ZNSt3__116__pad_and_outputB8ue170006IcNS_11char_traitsIcEEEENS_19ostreambuf_iteratorIT_T0_EES6_PKS4_S8_S8_RNS_8ios_baseES4_, symObjAddr: 0x7518, symBinAddr: 0x100009738, symSize: 0x240 }
  - { offsetInCU: 0x19B57, offset: 0x19B57, size: 0x8, addend: 0x0, symName: __ZNSt3__112__to_addressB8ue170006IcEEPT_S2_, symObjAddr: 0x7988, symBinAddr: 0x100009BA8, symSize: 0x14 }
  - { offsetInCU: 0x19B8C, offset: 0x19B8C, size: 0x8, addend: 0x0, symName: __ZNSt3__19use_facetB8ue170006INS_5ctypeIcEEEERKT_RKNS_6localeE, symObjAddr: 0x7B34, symBinAddr: 0x100009D54, symSize: 0x2C }
  - { offsetInCU: 0x19F6A, offset: 0x19F6A, size: 0x8, addend: 0x0, symName: __ZNSt3__118__constexpr_strlenB8ue170006EPKc, symObjAddr: 0x7BCC, symBinAddr: 0x100009DEC, symSize: 0x24 }
  - { offsetInCU: 0x19F96, offset: 0x19F96, size: 0x8, addend: 0x0, symName: __ZNSt3__17getlineB8ue170006IcNS_11char_traitsIcEENS_9allocatorIcEEEERNS_13basic_istreamIT_T0_EES9_RNS_12basic_stringIS6_S7_T1_EES6_, symObjAddr: 0x7DC4, symBinAddr: 0x100009FE4, symSize: 0x238 }
  - { offsetInCU: 0x1A275, offset: 0x1A275, size: 0x8, addend: 0x0, symName: __ZNSt3__116forward_as_tupleB8ue170006IJRKiEEENS_5tupleIJDpOT_EEES6_, symObjAddr: 0x8CD0, symBinAddr: 0x10000AEF0, symSize: 0x2C }
  - { offsetInCU: 0x1A2AE, offset: 0x1A2AE, size: 0x8, addend: 0x0, symName: __ZNSt3__116forward_as_tupleB8ue170006IJEEENS_5tupleIJDpOT_EEES4_, symObjAddr: 0x8CFC, symBinAddr: 0x10000AF1C, symSize: 0x4 }
  - { offsetInCU: 0x1A2D2, offset: 0x1A2D2, size: 0x8, addend: 0x0, symName: __ZNSt3__116__constrain_hashB8ue170006Emm, symObjAddr: 0x8DB0, symBinAddr: 0x10000AFD0, symSize: 0x98 }
  - { offsetInCU: 0x1A30C, offset: 0x1A30C, size: 0x8, addend: 0x0, symName: __ZNSt3__13maxB8ue170006ImEERKT_S3_S3_, symObjAddr: 0x90D0, symBinAddr: 0x10000B2F0, symSize: 0x2C }
  - { offsetInCU: 0x1A34F, offset: 0x1A34F, size: 0x8, addend: 0x0, symName: __ZNSt3__116__is_hash_power2B8ue170006Em, symObjAddr: 0x90FC, symBinAddr: 0x10000B31C, symSize: 0x50 }
  - { offsetInCU: 0x1A37B, offset: 0x1A37B, size: 0x8, addend: 0x0, symName: __ZNSt3__17launderB8ue170006IKNS_4pairIKiP6ssl_stEEEEPT_S8_, symObjAddr: 0x9490, symBinAddr: 0x10000B6B0, symSize: 0x24 }
  - { offsetInCU: 0x1A3B2, offset: 0x1A3B2, size: 0x8, addend: 0x0, symName: __ZNSt3__19__launderB8ue170006IKNS_4pairIKiP6ssl_stEEEEPT_S8_, symObjAddr: 0x94B4, symBinAddr: 0x10000B6D4, symSize: 0x14 }
  - { offsetInCU: 0x1A407, offset: 0x1A407, size: 0x8, addend: 0x0, symName: __ZNSt3__117__libcpp_allocateB8ue170006Emm, symObjAddr: 0x9690, symBinAddr: 0x10000B8B0, symSize: 0x60 }
  - { offsetInCU: 0x1A461, offset: 0x1A461, size: 0x8, addend: 0x0, symName: __ZNSt3__121__libcpp_operator_newB8ue170006IJmSt11align_val_tEEEPvDpT_, symObjAddr: 0x9704, symBinAddr: 0x10000B924, symSize: 0x2C }
  - { offsetInCU: 0x1A4AE, offset: 0x1A4AE, size: 0x8, addend: 0x0, symName: __ZNSt3__121__libcpp_operator_newB8ue170006IJmEEEPvDpT_, symObjAddr: 0x9730, symBinAddr: 0x10000B950, symSize: 0x24 }
  - { offsetInCU: 0x1A4F2, offset: 0x1A4F2, size: 0x8, addend: 0x0, symName: __ZNSt3__13getB8ue170006ILm0EJRKiEEERNS_13tuple_elementIXT_ENS_5tupleIJDpT0_EEEE4typeERS7_, symObjAddr: 0x99AC, symBinAddr: 0x10000BBCC, symSize: 0x24 }
  - { offsetInCU: 0x1A535, offset: 0x1A535, size: 0x8, addend: 0x0, symName: __ZNSt3__116__next_hash_pow2B8ue170006Em, symObjAddr: 0x9EB0, symBinAddr: 0x10000C0D0, symSize: 0x6C }
  - { offsetInCU: 0x1A57D, offset: 0x1A57D, size: 0x8, addend: 0x0, symName: __ZNSt3__112__libcpp_clzB8ue170006Em, symObjAddr: 0xA074, symBinAddr: 0x10000C294, symSize: 0x1C }
  - { offsetInCU: 0x1A5A9, offset: 0x1A5A9, size: 0x8, addend: 0x0, symName: __ZNSt3__13maxB8ue170006ImNS_6__lessIvvEEEERKT_S5_S5_T0_, symObjAddr: 0xA090, symBinAddr: 0x10000C2B0, symSize: 0x54 }
  - { offsetInCU: 0x1A69F, offset: 0x1A69F, size: 0x8, addend: 0x0, symName: __ZNSt3__17launderB8ue170006IKNS_4pairIKiNS_12basic_stringIcNS_11char_traitsIcEENS_9allocatorIcEEEEEEEEPT_SC_, symObjAddr: 0xAEF0, symBinAddr: 0x10000D110, symSize: 0x24 }
  - { offsetInCU: 0x1A6D6, offset: 0x1A6D6, size: 0x8, addend: 0x0, symName: __ZNSt3__19__launderB8ue170006IKNS_4pairIKiNS_12basic_stringIcNS_11char_traitsIcEENS_9allocatorIcEEEEEEEEPT_SC_, symObjAddr: 0xAF14, symBinAddr: 0x10000D134, symSize: 0x14 }
  - { offsetInCU: 0x1A75E, offset: 0x1A75E, size: 0x8, addend: 0x0, symName: __ZNSt3__1neB8ue170006ERKNS_15__hash_iteratorIPNS_11__hash_nodeINS_17__hash_value_typeIiNS_12basic_stringIcNS_11char_traitsIcEENS_9allocatorIcEEEEEEPvEEEESF_, symObjAddr: 0xBCD8, symBinAddr: 0x10000DEF8, symSize: 0x34 }
  - { offsetInCU: 0x1A79B, offset: 0x1A79B, size: 0x8, addend: 0x0, symName: __ZNSt3__1eqB8ue170006ERKNS_15__hash_iteratorIPNS_11__hash_nodeINS_17__hash_value_typeIiNS_12basic_stringIcNS_11char_traitsIcEENS_9allocatorIcEEEEEEPvEEEESF_, symObjAddr: 0xBD0C, symBinAddr: 0x10000DF2C, symSize: 0x30 }
  - { offsetInCU: 0x1A7D8, offset: 0x1A7D8, size: 0x8, addend: 0x0, symName: __ZNSt3__116forward_as_tupleB8ue170006IJRKNS_12basic_stringIcNS_11char_traitsIcEENS_9allocatorIcEEEEEEENS_5tupleIJDpOT_EEESC_, symObjAddr: 0xC26C, symBinAddr: 0x10000E48C, symSize: 0x2C }
  - { offsetInCU: 0x1A811, offset: 0x1A811, size: 0x8, addend: 0x0, symName: __ZNSt3__116__do_string_hashB8ue170006IPKcEEmT_S3_, symObjAddr: 0xC7BC, symBinAddr: 0x10000E9DC, symSize: 0x3C }
  - { offsetInCU: 0x1A857, offset: 0x1A857, size: 0x8, addend: 0x0, symName: __ZNSt3__110__loadwordB8ue170006ImEET_PKv, symObjAddr: 0xD1B0, symBinAddr: 0x10000F3D0, symSize: 0x20 }
  - { offsetInCU: 0x1A89A, offset: 0x1A89A, size: 0x8, addend: 0x0, symName: __ZNSt3__14swapB8ue170006ImEENS_9enable_ifIXaasr21is_move_constructibleIT_EE5valuesr18is_move_assignableIS2_EE5valueEvE4typeERS2_S5_, symObjAddr: 0xD36C, symBinAddr: 0x10000F58C, symSize: 0x3C }
  - { offsetInCU: 0x1A8EB, offset: 0x1A8EB, size: 0x8, addend: 0x0, symName: __ZNSt3__110__loadwordB8ue170006IjEET_PKv, symObjAddr: 0xD3FC, symBinAddr: 0x10000F61C, symSize: 0x20 }
  - { offsetInCU: 0x1A92E, offset: 0x1A92E, size: 0x8, addend: 0x0, symName: __ZNSt3__17launderB8ue170006IKNS_4pairIKNS_12basic_stringIcNS_11char_traitsIcEENS_9allocatorIcEEEES7_EEEEPT_SC_, symObjAddr: 0xD6D8, symBinAddr: 0x10000F8F8, symSize: 0x24 }
  - { offsetInCU: 0x1A965, offset: 0x1A965, size: 0x8, addend: 0x0, symName: __ZNSt3__19__launderB8ue170006IKNS_4pairIKNS_12basic_stringIcNS_11char_traitsIcEENS_9allocatorIcEEEES7_EEEEPT_SC_, symObjAddr: 0xD6FC, symBinAddr: 0x10000F91C, symSize: 0x14 }
  - { offsetInCU: 0x1A9BA, offset: 0x1A9BA, size: 0x8, addend: 0x0, symName: __ZNSt3__13getB8ue170006ILm0EJRKNS_12basic_stringIcNS_11char_traitsIcEENS_9allocatorIcEEEEEEERNS_13tuple_elementIXT_ENS_5tupleIJDpT0_EEEE4typeERSD_, symObjAddr: 0xDB10, symBinAddr: 0x10000FD30, symSize: 0x24 }
  - { offsetInCU: 0x1AA45, offset: 0x1AA45, size: 0x8, addend: 0x0, symName: __ZNSt3__1neB8ue170006ERKNS_15__hash_iteratorIPNS_11__hash_nodeINS_17__hash_value_typeINS_12basic_stringIcNS_11char_traitsIcEENS_9allocatorIcEEEES8_EEPvEEEESF_, symObjAddr: 0xE690, symBinAddr: 0x1000108B0, symSize: 0x34 }
  - { offsetInCU: 0x1AA82, offset: 0x1AA82, size: 0x8, addend: 0x0, symName: __ZNSt3__1eqB8ue170006ERKNS_15__hash_iteratorIPNS_11__hash_nodeINS_17__hash_value_typeINS_12basic_stringIcNS_11char_traitsIcEENS_9allocatorIcEEEES8_EEPvEEEESF_, symObjAddr: 0xE6C4, symBinAddr: 0x1000108E4, symSize: 0x30 }
  - { offsetInCU: 0x1AAF2, offset: 0x1AAF2, size: 0x8, addend: 0x0, symName: __ZNSt3__1eqB8ue170006ERKNS_15__hash_iteratorIPNS_11__hash_nodeINS_17__hash_value_typeIiP6ssl_stEEPvEEEESB_, symObjAddr: 0xE938, symBinAddr: 0x100010B58, symSize: 0x30 }
  - { offsetInCU: 0x1AF5F, offset: 0x1AF5F, size: 0x8, addend: 0x0, symName: __ZNSt3__122__libcpp_thread_createB8ue170006EPP17_opaque_pthread_tPFPvS3_ES3_, symObjAddr: 0xF448, symBinAddr: 0x100011668, symSize: 0x38 }
  - { offsetInCU: 0x1AFAB, offset: 0x1AFAB, size: 0x8, addend: 0x0, symName: __ZNSt3__114__thread_proxyB8ue170006INS_5tupleIJNS_10unique_ptrINS_15__thread_structENS_14default_deleteIS3_EEEEPFviEiEEEEEPvSA_, symObjAddr: 0xF480, symBinAddr: 0x1000116A0, symSize: 0x90 }
  - { offsetInCU: 0x1B0F4, offset: 0x1B0F4, size: 0x8, addend: 0x0, symName: __ZNSt3__13getB8ue170006ILm0EJNS_10unique_ptrINS_15__thread_structENS_14default_deleteIS2_EEEEPFviEiEEERNS_13tuple_elementIXT_ENS_5tupleIJDpT0_EEEE4typeERSC_, symObjAddr: 0xFB78, symBinAddr: 0x100011D98, symSize: 0x24 }
  - { offsetInCU: 0x1B141, offset: 0x1B141, size: 0x8, addend: 0x0, symName: __ZNSt3__116__thread_executeB8ue170006INS_10unique_ptrINS_15__thread_structENS_14default_deleteIS2_EEEEPFviEJiEJLm2EEEEvRNS_5tupleIJT_T0_DpT1_EEENS_15__tuple_indicesIJXspT2_EEEE, symObjAddr: 0xFB9C, symBinAddr: 0x100011DBC, symSize: 0x3C }
  - { offsetInCU: 0x1B19C, offset: 0x1B19C, size: 0x8, addend: 0x0, symName: __ZNSt3__116__libcpp_tls_setB8ue170006EmPv, symObjAddr: 0xFBD8, symBinAddr: 0x100011DF8, symSize: 0x2C }
  - { offsetInCU: 0x1B1D9, offset: 0x1B1D9, size: 0x8, addend: 0x0, symName: __ZNSt3__18__invokeB8ue170006IPFviEJiEEEDTclclsr3stdE7declvalIT_EEspclsr3stdE7declvalIT0_EEEEOS3_DpOS4_, symObjAddr: 0xFC18, symBinAddr: 0x100011E38, symSize: 0x34 }
  - { offsetInCU: 0x1B226, offset: 0x1B226, size: 0x8, addend: 0x0, symName: __ZNSt3__13getB8ue170006ILm1EJNS_10unique_ptrINS_15__thread_structENS_14default_deleteIS2_EEEEPFviEiEEERNS_13tuple_elementIXT_ENS_5tupleIJDpT0_EEEE4typeERSC_, symObjAddr: 0xFC4C, symBinAddr: 0x100011E6C, symSize: 0x28 }
  - { offsetInCU: 0x1B273, offset: 0x1B273, size: 0x8, addend: 0x0, symName: __ZNSt3__13getB8ue170006ILm2EJNS_10unique_ptrINS_15__thread_structENS_14default_deleteIS2_EEEEPFviEiEEERNS_13tuple_elementIXT_ENS_5tupleIJDpT0_EEEE4typeERSC_, symObjAddr: 0xFC74, symBinAddr: 0x100011E94, symSize: 0x28 }
  - { offsetInCU: 0x1B583, offset: 0x1B583, size: 0x8, addend: 0x0, symName: __ZSt28__throw_bad_array_new_lengthB8ue170006v, symObjAddr: 0x965C, symBinAddr: 0x10000B87C, symSize: 0x34 }
  - { offsetInCU: 0x1BB95, offset: 0x1BB95, size: 0x8, addend: 0x0, symName: _online_usernames, symObjAddr: 0xBF678, symBinAddr: 0x1000180E8, symSize: 0x0 }
  - { offsetInCU: 0x1C222, offset: 0x1C222, size: 0x8, addend: 0x0, symName: _client_mutex, symObjAddr: 0x10800, symBinAddr: 0x100018000, symSize: 0x0 }
  - { offsetInCU: 0x1C295, offset: 0x1C295, size: 0x8, addend: 0x0, symName: _file_database, symObjAddr: 0xBF6A0, symBinAddr: 0x100018110, symSize: 0x0 }
  - { offsetInCU: 0x1C770, offset: 0x1C770, size: 0x8, addend: 0x0, symName: _file_db_mutex, symObjAddr: 0x10840, symBinAddr: 0x100018040, symSize: 0x0 }
  - { offsetInCU: 0x1C785, offset: 0x1C785, size: 0x8, addend: 0x0, symName: _user_db_mutex, symObjAddr: 0x10880, symBinAddr: 0x100018080, symSize: 0x0 }
  - { offsetInCU: 0x1F4CB, offset: 0x1F4CB, size: 0x8, addend: 0x0, symName: __ZNSt3__113unordered_mapIiP6ssl_stNS_4hashIiEENS_8equal_toIiEENS_9allocatorINS_4pairIKiS2_EEEEEC1B8ue170006Ev, symObjAddr: 0x0, symBinAddr: 0x100002220, symSize: 0x2C }
  - { offsetInCU: 0x1F4F5, offset: 0x1F4F5, size: 0x8, addend: 0x0, symName: __ZNSt3__113unordered_mapIiP6ssl_stNS_4hashIiEENS_8equal_toIiEENS_9allocatorINS_4pairIKiS2_EEEEED1B8ue170006Ev, symObjAddr: 0x2C, symBinAddr: 0x10000224C, symSize: 0x2C }
  - { offsetInCU: 0x1F51F, offset: 0x1F51F, size: 0x8, addend: 0x0, symName: __ZNSt3__113unordered_mapIiNS_12basic_stringIcNS_11char_traitsIcEENS_9allocatorIcEEEENS_4hashIiEENS_8equal_toIiEENS4_INS_4pairIKiS6_EEEEEC1B8ue170006Ev, symObjAddr: 0x58, symBinAddr: 0x100002278, symSize: 0x2C }
  - { offsetInCU: 0x1F549, offset: 0x1F549, size: 0x8, addend: 0x0, symName: __ZNSt3__113unordered_mapIiNS_12basic_stringIcNS_11char_traitsIcEENS_9allocatorIcEEEENS_4hashIiEENS_8equal_toIiEENS4_INS_4pairIKiS6_EEEEED1B8ue170006Ev, symObjAddr: 0x84, symBinAddr: 0x1000022A4, symSize: 0x2C }
  - { offsetInCU: 0x1F573, offset: 0x1F573, size: 0x8, addend: 0x0, symName: __ZNSt3__113unordered_mapINS_12basic_stringIcNS_11char_traitsIcEENS_9allocatorIcEEEES6_NS_4hashIS6_EENS_8equal_toIS6_EENS4_INS_4pairIKS6_S6_EEEEEC1B8ue170006Ev, symObjAddr: 0xB0, symBinAddr: 0x1000022D0, symSize: 0x2C }
  - { offsetInCU: 0x1F59D, offset: 0x1F59D, size: 0x8, addend: 0x0, symName: __ZNSt3__113unordered_mapINS_12basic_stringIcNS_11char_traitsIcEENS_9allocatorIcEEEES6_NS_4hashIS6_EENS_8equal_toIS6_EENS4_INS_4pairIKS6_S6_EEEEED1B8ue170006Ev, symObjAddr: 0xDC, symBinAddr: 0x1000022FC, symSize: 0x2C }
  - { offsetInCU: 0x1F5C7, offset: 0x1F5C7, size: 0x8, addend: 0x0, symName: __Z8SSL_initv, symObjAddr: 0x108, symBinAddr: 0x100002328, symSize: 0x44 }
  - { offsetInCU: 0x1F5E0, offset: 0x1F5E0, size: 0x8, addend: 0x0, symName: __Z14create_contextv, symObjAddr: 0x14C, symBinAddr: 0x10000236C, symSize: 0x5C }
  - { offsetInCU: 0x1F61A, offset: 0x1F61A, size: 0x8, addend: 0x0, symName: __Z17configure_contextP10ssl_ctx_st, symObjAddr: 0x1A8, symBinAddr: 0x1000023C8, symSize: 0xC8 }
  - { offsetInCU: 0x1F69E, offset: 0x1F69E, size: 0x8, addend: 0x0, symName: __ZN4User6signupEP6ssl_sti, symObjAddr: 0x2B8, symBinAddr: 0x1000024D8, symSize: 0x740 }
  - { offsetInCU: 0x1F7C8, offset: 0x1F7C8, size: 0x8, addend: 0x0, symName: __ZNSt3__112basic_stringIcNS_11char_traitsIcEENS_9allocatorIcEEEC1B8ue170006Ev, symObjAddr: 0x9F8, symBinAddr: 0x100002C18, symSize: 0x2C }
  - { offsetInCU: 0x1F7F2, offset: 0x1F7F2, size: 0x8, addend: 0x0, symName: __ZNSt3__113basic_ostreamIcNS_11char_traitsIcEEElsB8ue170006EPFRS3_S4_E, symObjAddr: 0xA24, symBinAddr: 0x100002C44, symSize: 0x2C }
  - { offsetInCU: 0x1F82B, offset: 0x1F82B, size: 0x8, addend: 0x0, symName: __ZNSt3__112basic_stringIcNS_11char_traitsIcEENS_9allocatorIcEEEC1B8ue170006ILi0EEEPKc, symObjAddr: 0xAA8, symBinAddr: 0x100002CC8, symSize: 0x34 }
  - { offsetInCU: 0x1F86A, offset: 0x1F86A, size: 0x8, addend: 0x0, symName: __ZNSt3__112basic_stringIcNS_11char_traitsIcEENS_9allocatorIcEEEaSB8ue170006EOS5_, symObjAddr: 0xADC, symBinAddr: 0x100002CFC, symSize: 0x34 }
  - { offsetInCU: 0x1F8B8, offset: 0x1F8B8, size: 0x8, addend: 0x0, symName: __ZNSt3__110lock_guardINS_5mutexEEC1B8ue170006ERS1_, symObjAddr: 0xB5C, symBinAddr: 0x100002D7C, symSize: 0x34 }
  - { offsetInCU: 0x1FA05, offset: 0x1FA05, size: 0x8, addend: 0x0, symName: __ZNSt3__114basic_ifstreamIcNS_11char_traitsIcEEEC1EPKcj, symObjAddr: 0xB90, symBinAddr: 0x100002DB0, symSize: 0x16C }
  - { offsetInCU: 0x1FA4F, offset: 0x1FA4F, size: 0x8, addend: 0x0, symName: __ZNKSt3__19basic_iosIcNS_11char_traitsIcEEEcvbB8ue170006Ev, symObjAddr: 0xD58, symBinAddr: 0x100002F78, symSize: 0x2C }
  - { offsetInCU: 0x1FAC5, offset: 0x1FAC5, size: 0x8, addend: 0x0, symName: __ZNSt3__119basic_istringstreamIcNS_11char_traitsIcEENS_9allocatorIcEEEC1B8ue170006ERKNS_12basic_stringIcS2_S4_EEj, symObjAddr: 0xD84, symBinAddr: 0x100002FA4, symSize: 0xFC }
  - { offsetInCU: 0x1FB0D, offset: 0x1FB0D, size: 0x8, addend: 0x0, symName: __ZNKSt3__112basic_stringIcNS_11char_traitsIcEENS_9allocatorIcEEE5c_strB8ue170006Ev, symObjAddr: 0x12D0, symBinAddr: 0x1000034F0, symSize: 0x24 }
  - { offsetInCU: 0x1FB33, offset: 0x1FB33, size: 0x8, addend: 0x0, symName: __ZNKSt3__112basic_stringIcNS_11char_traitsIcEENS_9allocatorIcEEE6lengthB8ue170006Ev, symObjAddr: 0x12F4, symBinAddr: 0x100003514, symSize: 0x24 }
  - { offsetInCU: 0x1FB5E, offset: 0x1FB5E, size: 0x8, addend: 0x0, symName: __ZNSt3__119basic_istringstreamIcNS_11char_traitsIcEENS_9allocatorIcEEED1Ev, symObjAddr: 0x1318, symBinAddr: 0x100003538, symSize: 0x40 }
  - { offsetInCU: 0x1FB8B, offset: 0x1FB8B, size: 0x8, addend: 0x0, symName: __ZNSt3__114basic_ifstreamIcNS_11char_traitsIcEEE5closeEv, symObjAddr: 0x1358, symBinAddr: 0x100003578, symSize: 0x58 }
  - { offsetInCU: 0x1FBCC, offset: 0x1FBCC, size: 0x8, addend: 0x0, symName: __ZNSt3__114basic_ofstreamIcNS_11char_traitsIcEEEC1EPKcj, symObjAddr: 0x13B0, symBinAddr: 0x1000035D0, symSize: 0x16C }
  - { offsetInCU: 0x1FC16, offset: 0x1FC16, size: 0x8, addend: 0x0, symName: __ZNKSt3__114basic_ofstreamIcNS_11char_traitsIcEEE7is_openEv, symObjAddr: 0x151C, symBinAddr: 0x10000373C, symSize: 0x2C }
  - { offsetInCU: 0x1FC3E, offset: 0x1FC3E, size: 0x8, addend: 0x0, symName: __ZNSt3__114basic_ofstreamIcNS_11char_traitsIcEEE5closeEv, symObjAddr: 0x1548, symBinAddr: 0x100003768, symSize: 0x58 }
  - { offsetInCU: 0x1FC6B, offset: 0x1FC6B, size: 0x8, addend: 0x0, symName: __ZNSt3__114basic_ofstreamIcNS_11char_traitsIcEEED1Ev, symObjAddr: 0x15A0, symBinAddr: 0x1000037C0, symSize: 0x40 }
  - { offsetInCU: 0x1FC9D, offset: 0x1FC9D, size: 0x8, addend: 0x0, symName: __ZNSt3__114basic_ifstreamIcNS_11char_traitsIcEEED1Ev, symObjAddr: 0x15E0, symBinAddr: 0x100003800, symSize: 0x40 }
  - { offsetInCU: 0x1FCCA, offset: 0x1FCCA, size: 0x8, addend: 0x0, symName: __ZNSt3__110lock_guardINS_5mutexEED1B8ue170006Ev, symObjAddr: 0x1620, symBinAddr: 0x100003840, symSize: 0x2C }
  - { offsetInCU: 0x1FCF4, offset: 0x1FCF4, size: 0x8, addend: 0x0, symName: __ZN4User5loginEP6ssl_sti, symObjAddr: 0x164C, symBinAddr: 0x10000386C, symSize: 0x6E8 }
  - { offsetInCU: 0x1FE0F, offset: 0x1FE0F, size: 0x8, addend: 0x0, symName: __ZNSt3__113unordered_mapIiP6ssl_stNS_4hashIiEENS_8equal_toIiEENS_9allocatorINS_4pairIKiS2_EEEEEixERS9_, symObjAddr: 0x1D34, symBinAddr: 0x100003F54, symSize: 0x80 }
  - { offsetInCU: 0x1FE46, offset: 0x1FE46, size: 0x8, addend: 0x0, symName: __ZNSt3__113unordered_mapIiNS_12basic_stringIcNS_11char_traitsIcEENS_9allocatorIcEEEENS_4hashIiEENS_8equal_toIiEENS4_INS_4pairIKiS6_EEEEEixERSC_, symObjAddr: 0x1DB4, symBinAddr: 0x100003FD4, symSize: 0x80 }
  - { offsetInCU: 0x1FE7C, offset: 0x1FE7C, size: 0x8, addend: 0x0, symName: __Z18send_relay_messageP6ssl_sti, symObjAddr: 0x1E34, symBinAddr: 0x100004054, symSize: 0x640 }
  - { offsetInCU: 0x1FF9B, offset: 0x1FF9B, size: 0x8, addend: 0x0, symName: __ZNSt3__113unordered_mapIiNS_12basic_stringIcNS_11char_traitsIcEENS_9allocatorIcEEEENS_4hashIiEENS_8equal_toIiEENS4_INS_4pairIKiS6_EEEEE5beginB8ue170006Ev, symObjAddr: 0x24F4, symBinAddr: 0x100004714, symSize: 0x38 }
  - { offsetInCU: 0x1FFC1, offset: 0x1FFC1, size: 0x8, addend: 0x0, symName: __ZNSt3__113unordered_mapIiNS_12basic_stringIcNS_11char_traitsIcEENS_9allocatorIcEEEENS_4hashIiEENS_8equal_toIiEENS4_INS_4pairIKiS6_EEEEE3endB8ue170006Ev, symObjAddr: 0x252C, symBinAddr: 0x10000474C, symSize: 0x38 }
  - { offsetInCU: 0x1FFE7, offset: 0x1FFE7, size: 0x8, addend: 0x0, symName: __ZNKSt3__119__hash_map_iteratorINS_15__hash_iteratorIPNS_11__hash_nodeINS_17__hash_value_typeIiNS_12basic_stringIcNS_11char_traitsIcEENS_9allocatorIcEEEEEEPvEEEEEdeB8ue170006Ev, symObjAddr: 0x2594, symBinAddr: 0x1000047B4, symSize: 0x28 }
  - { offsetInCU: 0x2000D, offset: 0x2000D, size: 0x8, addend: 0x0, symName: __ZNSt3__119__hash_map_iteratorINS_15__hash_iteratorIPNS_11__hash_nodeINS_17__hash_value_typeIiNS_12basic_stringIcNS_11char_traitsIcEENS_9allocatorIcEEEEEEPvEEEEEppB8ue170006Ev, symObjAddr: 0x25BC, symBinAddr: 0x1000047DC, symSize: 0x2C }
  - { offsetInCU: 0x20032, offset: 0x20032, size: 0x8, addend: 0x0, symName: __Z16handle_send_fileP6ssl_sti, symObjAddr: 0x25E8, symBinAddr: 0x100004808, symSize: 0x578 }
  - { offsetInCU: 0x2010D, offset: 0x2010D, size: 0x8, addend: 0x0, symName: __ZNSt3__112basic_stringIcNS_11char_traitsIcEENS_9allocatorIcEEEC1B8ue170006EPKcm, symObjAddr: 0x2B60, symBinAddr: 0x100004D80, symSize: 0x3C }
  - { offsetInCU: 0x20155, offset: 0x20155, size: 0x8, addend: 0x0, symName: __ZNSt3__114basic_ofstreamIcNS_11char_traitsIcEEEC1ERKNS_12basic_stringIcS2_NS_9allocatorIcEEEEj, symObjAddr: 0x2B9C, symBinAddr: 0x100004DBC, symSize: 0x16C }
  - { offsetInCU: 0x2019F, offset: 0x2019F, size: 0x8, addend: 0x0, symName: __ZNSt3__113unordered_mapINS_12basic_stringIcNS_11char_traitsIcEENS_9allocatorIcEEEES6_NS_4hashIS6_EENS_8equal_toIS6_EENS4_INS_4pairIKS6_S6_EEEEEixERSC_, symObjAddr: 0x2D08, symBinAddr: 0x100004F28, symSize: 0x80 }
  - { offsetInCU: 0x201D5, offset: 0x201D5, size: 0x8, addend: 0x0, symName: __Z19handle_receive_fileP6ssl_sti, symObjAddr: 0x2D88, symBinAddr: 0x100004FA8, symSize: 0x7D0 }
  - { offsetInCU: 0x20309, offset: 0x20309, size: 0x8, addend: 0x0, symName: __ZNSt3__113unordered_mapINS_12basic_stringIcNS_11char_traitsIcEENS_9allocatorIcEEEES6_NS_4hashIS6_EENS_8equal_toIS6_EENS4_INS_4pairIKS6_S6_EEEEE4findB8ue170006ERSC_, symObjAddr: 0x3558, symBinAddr: 0x100005778, symSize: 0x40 }
  - { offsetInCU: 0x2033E, offset: 0x2033E, size: 0x8, addend: 0x0, symName: __ZNSt3__113unordered_mapINS_12basic_stringIcNS_11char_traitsIcEENS_9allocatorIcEEEES6_NS_4hashIS6_EENS_8equal_toIS6_EENS4_INS_4pairIKS6_S6_EEEEE3endB8ue170006Ev, symObjAddr: 0x35C8, symBinAddr: 0x1000057E8, symSize: 0x38 }
  - { offsetInCU: 0x20364, offset: 0x20364, size: 0x8, addend: 0x0, symName: __ZNKSt3__119__hash_map_iteratorINS_15__hash_iteratorIPNS_11__hash_nodeINS_17__hash_value_typeINS_12basic_stringIcNS_11char_traitsIcEENS_9allocatorIcEEEES9_EEPvEEEEEptB8ue170006Ev, symObjAddr: 0x3600, symBinAddr: 0x100005820, symSize: 0x2C }
  - { offsetInCU: 0x2038A, offset: 0x2038A, size: 0x8, addend: 0x0, symName: __ZNKSt3__112basic_stringIcNS_11char_traitsIcEENS_9allocatorIcEEE5emptyB8ue170006Ev, symObjAddr: 0x362C, symBinAddr: 0x10000584C, symSize: 0x30 }
  - { offsetInCU: 0x203B0, offset: 0x203B0, size: 0x8, addend: 0x0, symName: __ZNSt3__114basic_ifstreamIcNS_11char_traitsIcEEEC1ERKNS_12basic_stringIcS2_NS_9allocatorIcEEEEj, symObjAddr: 0x365C, symBinAddr: 0x10000587C, symSize: 0x16C }
  - { offsetInCU: 0x203FA, offset: 0x203FA, size: 0x8, addend: 0x0, symName: __ZNKSt3__114basic_ifstreamIcNS_11char_traitsIcEEE7is_openEv, symObjAddr: 0x37C8, symBinAddr: 0x1000059E8, symSize: 0x2C }
  - { offsetInCU: 0x20422, offset: 0x20422, size: 0x8, addend: 0x0, symName: __ZNKSt3__14fposI11__mbstate_tEcvxB8ue170006Ev, symObjAddr: 0x37F4, symBinAddr: 0x100005A14, symSize: 0x18 }
  - { offsetInCU: 0x20448, offset: 0x20448, size: 0x8, addend: 0x0, symName: __ZNKSt3__113basic_istreamIcNS_11char_traitsIcEEE6gcountB8ue170006Ev, symObjAddr: 0x380C, symBinAddr: 0x100005A2C, symSize: 0x18 }
  - { offsetInCU: 0x2046D, offset: 0x2046D, size: 0x8, addend: 0x0, symName: __Z17handle_send_audioP6ssl_sti, symObjAddr: 0x3824, symBinAddr: 0x100005A44, symSize: 0x2C }
  - { offsetInCU: 0x204A6, offset: 0x204A6, size: 0x8, addend: 0x0, symName: __Z20handle_receive_audioP6ssl_stiPc, symObjAddr: 0x3850, symBinAddr: 0x100005A70, symSize: 0x30 }
  - { offsetInCU: 0x204EE, offset: 0x204EE, size: 0x8, addend: 0x0, symName: __Z14client_handleri, symObjAddr: 0x3880, symBinAddr: 0x100005AA0, symSize: 0x5F0 }
  - { offsetInCU: 0x205BC, offset: 0x205BC, size: 0x8, addend: 0x0, symName: __ZNSt3__113unordered_mapIiP6ssl_stNS_4hashIiEENS_8equal_toIiEENS_9allocatorINS_4pairIKiS2_EEEEE4findB8ue170006ERS9_, symObjAddr: 0x3E70, symBinAddr: 0x100006090, symSize: 0x40 }
  - { offsetInCU: 0x205F1, offset: 0x205F1, size: 0x8, addend: 0x0, symName: __ZNSt3__113unordered_mapIiP6ssl_stNS_4hashIiEENS_8equal_toIiEENS_9allocatorINS_4pairIKiS2_EEEEE3endB8ue170006Ev, symObjAddr: 0x3EE0, symBinAddr: 0x100006100, symSize: 0x38 }
  - { offsetInCU: 0x20617, offset: 0x20617, size: 0x8, addend: 0x0, symName: __ZNKSt3__119__hash_map_iteratorINS_15__hash_iteratorIPNS_11__hash_nodeINS_17__hash_value_typeIiP6ssl_stEEPvEEEEEptB8ue170006Ev, symObjAddr: 0x3F18, symBinAddr: 0x100006138, symSize: 0x2C }
  - { offsetInCU: 0x2063D, offset: 0x2063D, size: 0x8, addend: 0x0, symName: __ZNSt3__113unordered_mapIiP6ssl_stNS_4hashIiEENS_8equal_toIiEENS_9allocatorINS_4pairIKiS2_EEEEE5eraseB8ue170006ERS9_, symObjAddr: 0x3FF0, symBinAddr: 0x100006210, symSize: 0x2C }
  - { offsetInCU: 0x20672, offset: 0x20672, size: 0x8, addend: 0x0, symName: __ZNSt3__113unordered_mapIiNS_12basic_stringIcNS_11char_traitsIcEENS_9allocatorIcEEEENS_4hashIiEENS_8equal_toIiEENS4_INS_4pairIKiS6_EEEEE5eraseB8ue170006ERSC_, symObjAddr: 0x401C, symBinAddr: 0x10000623C, symSize: 0x2C }
  - { offsetInCU: 0x206A7, offset: 0x206A7, size: 0x8, addend: 0x0, symName: _main, symObjAddr: 0x4048, symBinAddr: 0x100006268, symSize: 0x310 }
  - { offsetInCU: 0x20848, offset: 0x20848, size: 0x8, addend: 0x0, symName: __ZNSt3__16threadC1IRFviEJRiEvEEOT_DpOT0_, symObjAddr: 0x4358, symBinAddr: 0x100006578, symSize: 0x3C }
  - { offsetInCU: 0x208A3, offset: 0x208A3, size: 0x8, addend: 0x0, symName: __ZNSt3__119basic_istringstreamIcNS_11char_traitsIcEENS_9allocatorIcEEED2Ev, symObjAddr: 0x4394, symBinAddr: 0x1000065B4, symSize: 0x64 }
  - { offsetInCU: 0x208DD, offset: 0x208DD, size: 0x8, addend: 0x0, symName: __ZTv0_n24_NSt3__119basic_istringstreamIcNS_11char_traitsIcEENS_9allocatorIcEEED1Ev, symObjAddr: 0x43F8, symBinAddr: 0x100006618, symSize: 0x28 }
  - { offsetInCU: 0x208F9, offset: 0x208F9, size: 0x8, addend: 0x0, symName: __ZNSt3__115basic_stringbufIcNS_11char_traitsIcEENS_9allocatorIcEEED1Ev, symObjAddr: 0x4420, symBinAddr: 0x100006640, symSize: 0x2C }
  - { offsetInCU: 0x20926, offset: 0x20926, size: 0x8, addend: 0x0, symName: __ZNSt3__115basic_stringbufIcNS_11char_traitsIcEENS_9allocatorIcEEED2Ev, symObjAddr: 0x444C, symBinAddr: 0x10000666C, symSize: 0x48 }
  - { offsetInCU: 0x20953, offset: 0x20953, size: 0x8, addend: 0x0, symName: __ZNSt3__114basic_ofstreamIcNS_11char_traitsIcEEED2Ev, symObjAddr: 0x4494, symBinAddr: 0x1000066B4, symSize: 0x64 }
  - { offsetInCU: 0x2098D, offset: 0x2098D, size: 0x8, addend: 0x0, symName: __ZTv0_n24_NSt3__114basic_ofstreamIcNS_11char_traitsIcEEED1Ev, symObjAddr: 0x44F8, symBinAddr: 0x100006718, symSize: 0x28 }
  - { offsetInCU: 0x209A4, offset: 0x209A4, size: 0x8, addend: 0x0, symName: __ZNSt3__114basic_ifstreamIcNS_11char_traitsIcEEED2Ev, symObjAddr: 0x4520, symBinAddr: 0x100006740, symSize: 0x64 }
  - { offsetInCU: 0x209DE, offset: 0x209DE, size: 0x8, addend: 0x0, symName: __ZTv0_n24_NSt3__114basic_ifstreamIcNS_11char_traitsIcEEED1Ev, symObjAddr: 0x4584, symBinAddr: 0x1000067A4, symSize: 0x28 }
  - { offsetInCU: 0x209F5, offset: 0x209F5, size: 0x8, addend: 0x0, symName: __ZNSt3__112basic_stringIcNS_11char_traitsIcEENS_9allocatorIcEEEC2B8ue170006EPKcm, symObjAddr: 0x45AC, symBinAddr: 0x1000067CC, symSize: 0x4C }
  - { offsetInCU: 0x20A42, offset: 0x20A42, size: 0x8, addend: 0x0, symName: __ZNSt3__117__compressed_pairINS_12basic_stringIcNS_11char_traitsIcEENS_9allocatorIcEEE5__repES5_EC1B8ue170006INS_18__default_init_tagESA_EEOT_OT0_, symObjAddr: 0x45F8, symBinAddr: 0x100006818, symSize: 0x3C }
  - { offsetInCU: 0x20A9A, offset: 0x20A9A, size: 0x8, addend: 0x0, symName: __ZNSt3__117__compressed_pairINS_12basic_stringIcNS_11char_traitsIcEENS_9allocatorIcEEE5__repES5_EC2B8ue170006INS_18__default_init_tagESA_EEOT_OT0_, symObjAddr: 0x4634, symBinAddr: 0x100006854, symSize: 0x3C }
  - { offsetInCU: 0x20AF2, offset: 0x20AF2, size: 0x8, addend: 0x0, symName: __ZNSt3__122__compressed_pair_elemINS_12basic_stringIcNS_11char_traitsIcEENS_9allocatorIcEEE5__repELi0ELb0EEC2B8ue170006ENS_18__default_init_tagE, symObjAddr: 0x4670, symBinAddr: 0x100006890, symSize: 0x14 }
  - { offsetInCU: 0x20B26, offset: 0x20B26, size: 0x8, addend: 0x0, symName: __ZNSt3__122__compressed_pair_elemINS_9allocatorIcEELi1ELb1EEC2B8ue170006ENS_18__default_init_tagE, symObjAddr: 0x4684, symBinAddr: 0x1000068A4, symSize: 0x2C }
  - { offsetInCU: 0x20B5A, offset: 0x20B5A, size: 0x8, addend: 0x0, symName: __ZNSt3__19allocatorIcEC2B8ue170006Ev, symObjAddr: 0x46B0, symBinAddr: 0x1000068D0, symSize: 0x2C }
  - { offsetInCU: 0x20B84, offset: 0x20B84, size: 0x8, addend: 0x0, symName: __ZNSt3__116__non_trivial_ifILb1ENS_9allocatorIcEEEC2B8ue170006Ev, symObjAddr: 0x46DC, symBinAddr: 0x1000068FC, symSize: 0x14 }
  - { offsetInCU: 0x20BAE, offset: 0x20BAE, size: 0x8, addend: 0x0, symName: __ZNSt3__112basic_stringIcNS_11char_traitsIcEENS_9allocatorIcEEEC2B8ue170006Ev, symObjAddr: 0x46F0, symBinAddr: 0x100006910, symSize: 0x48 }
  - { offsetInCU: 0x20BD8, offset: 0x20BD8, size: 0x8, addend: 0x0, symName: __ZNSt3__112basic_stringIcNS_11char_traitsIcEENS_9allocatorIcEEE14__default_initB8ue170006Ev, symObjAddr: 0x4744, symBinAddr: 0x100006964, symSize: 0x40 }
  - { offsetInCU: 0x20BFE, offset: 0x20BFE, size: 0x8, addend: 0x0, symName: __ZNSt3__117__compressed_pairINS_12basic_stringIcNS_11char_traitsIcEENS_9allocatorIcEEE5__repES5_E5firstB8ue170006Ev, symObjAddr: 0x4784, symBinAddr: 0x1000069A4, symSize: 0x24 }
  - { offsetInCU: 0x20C24, offset: 0x20C24, size: 0x8, addend: 0x0, symName: __ZNSt3__122__compressed_pair_elemINS_12basic_stringIcNS_11char_traitsIcEENS_9allocatorIcEEE5__repELi0ELb0EE5__getB8ue170006Ev, symObjAddr: 0x47A8, symBinAddr: 0x1000069C8, symSize: 0x14 }
  - { offsetInCU: 0x20C4A, offset: 0x20C4A, size: 0x8, addend: 0x0, symName: __ZNSt3__112basic_stringIcNS_11char_traitsIcEENS_9allocatorIcEEE13__move_assignB8ue170006ERS5_NS_17integral_constantIbLb1EEE, symObjAddr: 0x47BC, symBinAddr: 0x1000069DC, symSize: 0xC8 }
  - { offsetInCU: 0x20C8D, offset: 0x20C8D, size: 0x8, addend: 0x0, symName: __ZNKSt3__112basic_stringIcNS_11char_traitsIcEENS_9allocatorIcEEE9__is_longB8ue170006Ev, symObjAddr: 0x4884, symBinAddr: 0x100006AA4, symSize: 0x38 }
  - { offsetInCU: 0x20CB3, offset: 0x20CB3, size: 0x8, addend: 0x0, symName: __ZNSt3__116allocator_traitsINS_9allocatorIcEEE10deallocateB8ue170006ERS2_Pcm, symObjAddr: 0x48BC, symBinAddr: 0x100006ADC, symSize: 0x34 }
  - { offsetInCU: 0x20CF5, offset: 0x20CF5, size: 0x8, addend: 0x0, symName: __ZNSt3__112basic_stringIcNS_11char_traitsIcEENS_9allocatorIcEEE7__allocB8ue170006Ev, symObjAddr: 0x48F0, symBinAddr: 0x100006B10, symSize: 0x24 }
  - { offsetInCU: 0x20D1B, offset: 0x20D1B, size: 0x8, addend: 0x0, symName: __ZNSt3__112basic_stringIcNS_11char_traitsIcEENS_9allocatorIcEEE18__get_long_pointerB8ue170006Ev, symObjAddr: 0x4914, symBinAddr: 0x100006B34, symSize: 0x28 }
  - { offsetInCU: 0x20D41, offset: 0x20D41, size: 0x8, addend: 0x0, symName: __ZNKSt3__112basic_stringIcNS_11char_traitsIcEENS_9allocatorIcEEE14__get_long_capB8ue170006Ev, symObjAddr: 0x493C, symBinAddr: 0x100006B5C, symSize: 0x30 }
  - { offsetInCU: 0x20D67, offset: 0x20D67, size: 0x8, addend: 0x0, symName: __ZNSt3__112basic_stringIcNS_11char_traitsIcEENS_9allocatorIcEEE19__move_assign_allocB8ue170006ERS5_, symObjAddr: 0x496C, symBinAddr: 0x100006B8C, symSize: 0x2C }
  - { offsetInCU: 0x20D9C, offset: 0x20D9C, size: 0x8, addend: 0x0, symName: __ZNSt3__112basic_stringIcNS_11char_traitsIcEENS_9allocatorIcEEE16__set_short_sizeB8ue170006Em, symObjAddr: 0x4998, symBinAddr: 0x100006BB8, symSize: 0x78 }
  - { offsetInCU: 0x20DD1, offset: 0x20DD1, size: 0x8, addend: 0x0, symName: __ZNSt3__111char_traitsIcE6assignB8ue170006ERcRKc, symObjAddr: 0x4A10, symBinAddr: 0x100006C30, symSize: 0x24 }
  - { offsetInCU: 0x20E02, offset: 0x20E02, size: 0x8, addend: 0x0, symName: __ZNSt3__112basic_stringIcNS_11char_traitsIcEENS_9allocatorIcEEE19__get_short_pointerB8ue170006Ev, symObjAddr: 0x4A34, symBinAddr: 0x100006C54, symSize: 0x28 }
  - { offsetInCU: 0x20E28, offset: 0x20E28, size: 0x8, addend: 0x0, symName: __ZNKSt3__117__compressed_pairINS_12basic_stringIcNS_11char_traitsIcEENS_9allocatorIcEEE5__repES5_E5firstB8ue170006Ev, symObjAddr: 0x4A5C, symBinAddr: 0x100006C7C, symSize: 0x24 }
  - { offsetInCU: 0x20E4E, offset: 0x20E4E, size: 0x8, addend: 0x0, symName: __ZNKSt3__122__compressed_pair_elemINS_12basic_stringIcNS_11char_traitsIcEENS_9allocatorIcEEE5__repELi0ELb0EE5__getB8ue170006Ev, symObjAddr: 0x4A80, symBinAddr: 0x100006CA0, symSize: 0x14 }
  - { offsetInCU: 0x20E74, offset: 0x20E74, size: 0x8, addend: 0x0, symName: __ZNSt3__19allocatorIcE10deallocateB8ue170006EPcm, symObjAddr: 0x4A94, symBinAddr: 0x100006CB4, symSize: 0x40 }
  - { offsetInCU: 0x20EB6, offset: 0x20EB6, size: 0x8, addend: 0x0, symName: __ZNSt3__117__compressed_pairINS_12basic_stringIcNS_11char_traitsIcEENS_9allocatorIcEEE5__repES5_E6secondB8ue170006Ev, symObjAddr: 0x4BFC, symBinAddr: 0x100006E1C, symSize: 0x24 }
  - { offsetInCU: 0x20EDC, offset: 0x20EDC, size: 0x8, addend: 0x0, symName: __ZNSt3__122__compressed_pair_elemINS_9allocatorIcEELi1ELb1EE5__getB8ue170006Ev, symObjAddr: 0x4C20, symBinAddr: 0x100006E40, symSize: 0x14 }
  - { offsetInCU: 0x20F02, offset: 0x20F02, size: 0x8, addend: 0x0, symName: __ZNSt3__112basic_stringIcNS_11char_traitsIcEENS_9allocatorIcEEE19__move_assign_allocB8ue170006ERS5_NS_17integral_constantIbLb1EEE, symObjAddr: 0x4C34, symBinAddr: 0x100006E54, symSize: 0x38 }
  - { offsetInCU: 0x20F43, offset: 0x20F43, size: 0x8, addend: 0x0, symName: __ZNSt3__114pointer_traitsIPcE10pointer_toB8ue170006ERc, symObjAddr: 0x4C6C, symBinAddr: 0x100006E8C, symSize: 0x14 }
  - { offsetInCU: 0x20F66, offset: 0x20F66, size: 0x8, addend: 0x0, symName: __ZNKSt3__112basic_stringIcNS_11char_traitsIcEENS_9allocatorIcEEE4dataB8ue170006Ev, symObjAddr: 0x4C80, symBinAddr: 0x100006EA0, symSize: 0x28 }
  - { offsetInCU: 0x20F8C, offset: 0x20F8C, size: 0x8, addend: 0x0, symName: __ZNKSt3__112basic_stringIcNS_11char_traitsIcEENS_9allocatorIcEEE13__get_pointerB8ue170006Ev, symObjAddr: 0x4CBC, symBinAddr: 0x100006EDC, symSize: 0x54 }
  - { offsetInCU: 0x20FB2, offset: 0x20FB2, size: 0x8, addend: 0x0, symName: __ZNKSt3__112basic_stringIcNS_11char_traitsIcEENS_9allocatorIcEEE18__get_long_pointerB8ue170006Ev, symObjAddr: 0x4D10, symBinAddr: 0x100006F30, symSize: 0x28 }
  - { offsetInCU: 0x20FD8, offset: 0x20FD8, size: 0x8, addend: 0x0, symName: __ZNKSt3__112basic_stringIcNS_11char_traitsIcEENS_9allocatorIcEEE19__get_short_pointerB8ue170006Ev, symObjAddr: 0x4D38, symBinAddr: 0x100006F58, symSize: 0x28 }
  - { offsetInCU: 0x20FFE, offset: 0x20FFE, size: 0x8, addend: 0x0, symName: __ZNSt3__114pointer_traitsIPKcE10pointer_toB8ue170006ERS1_, symObjAddr: 0x4D60, symBinAddr: 0x100006F80, symSize: 0x14 }
  - { offsetInCU: 0x21021, offset: 0x21021, size: 0x8, addend: 0x0, symName: __ZNKSt3__112basic_stringIcNS_11char_traitsIcEENS_9allocatorIcEEE4sizeB8ue170006Ev, symObjAddr: 0x4D74, symBinAddr: 0x100006F94, symSize: 0x54 }
  - { offsetInCU: 0x21047, offset: 0x21047, size: 0x8, addend: 0x0, symName: __ZNKSt3__112basic_stringIcNS_11char_traitsIcEENS_9allocatorIcEEE15__get_long_sizeB8ue170006Ev, symObjAddr: 0x4DC8, symBinAddr: 0x100006FE8, symSize: 0x28 }
  - { offsetInCU: 0x2106D, offset: 0x2106D, size: 0x8, addend: 0x0, symName: __ZNKSt3__112basic_stringIcNS_11char_traitsIcEENS_9allocatorIcEEE16__get_short_sizeB8ue170006Ev, symObjAddr: 0x4DF0, symBinAddr: 0x100007010, symSize: 0x34 }
  - { offsetInCU: 0x21093, offset: 0x21093, size: 0x8, addend: 0x0, symName: __ZNSt3__113unordered_mapIiP6ssl_stNS_4hashIiEENS_8equal_toIiEENS_9allocatorINS_4pairIKiS2_EEEEEC2B8ue170006Ev, symObjAddr: 0x4E24, symBinAddr: 0x100007044, symSize: 0x2C }
  - { offsetInCU: 0x210BD, offset: 0x210BD, size: 0x8, addend: 0x0, symName: __ZNSt3__112__hash_tableINS_17__hash_value_typeIiP6ssl_stEENS_22__unordered_map_hasherIiS4_NS_4hashIiEENS_8equal_toIiEELb1EEENS_21__unordered_map_equalIiS4_S9_S7_Lb1EEENS_9allocatorIS4_EEEC1Ev, symObjAddr: 0x4E50, symBinAddr: 0x100007070, symSize: 0x2C }
  - { offsetInCU: 0x210E9, offset: 0x210E9, size: 0x8, addend: 0x0, symName: __ZNSt3__112__hash_tableINS_17__hash_value_typeIiP6ssl_stEENS_22__unordered_map_hasherIiS4_NS_4hashIiEENS_8equal_toIiEELb1EEENS_21__unordered_map_equalIiS4_S9_S7_Lb1EEENS_9allocatorIS4_EEEC2Ev, symObjAddr: 0x4E7C, symBinAddr: 0x10000709C, symSize: 0x7C }
  - { offsetInCU: 0x21115, offset: 0x21115, size: 0x8, addend: 0x0, symName: __ZNSt3__110unique_ptrIA_PNS_16__hash_node_baseIPNS_11__hash_nodeINS_17__hash_value_typeIiP6ssl_stEEPvEEEENS_25__bucket_list_deallocatorINS_9allocatorISB_EEEEEC1B8ue170006ILb1EvEEv, symObjAddr: 0x4EF8, symBinAddr: 0x100007118, symSize: 0x2C }
  - { offsetInCU: 0x2114A, offset: 0x2114A, size: 0x8, addend: 0x0, symName: __ZNSt3__117__compressed_pairINS_16__hash_node_baseIPNS_11__hash_nodeINS_17__hash_value_typeIiP6ssl_stEEPvEEEENS_9allocatorIS8_EEEC1B8ue170006ILb1EvEEv, symObjAddr: 0x4F24, symBinAddr: 0x100007144, symSize: 0x2C }
  - { offsetInCU: 0x21184, offset: 0x21184, size: 0x8, addend: 0x0, symName: __ZNSt3__117__compressed_pairImNS_22__unordered_map_hasherIiNS_17__hash_value_typeIiP6ssl_stEENS_4hashIiEENS_8equal_toIiEELb1EEEEC1B8ue170006IiNS_18__default_init_tagEEEOT_OT0_, symObjAddr: 0x4F50, symBinAddr: 0x100007170, symSize: 0x3C }
  - { offsetInCU: 0x211E1, offset: 0x211E1, size: 0x8, addend: 0x0, symName: __ZNSt3__117__compressed_pairIfNS_21__unordered_map_equalIiNS_17__hash_value_typeIiP6ssl_stEENS_8equal_toIiEENS_4hashIiEELb1EEEEC1B8ue170006IfNS_18__default_init_tagEEEOT_OT0_, symObjAddr: 0x4F8C, symBinAddr: 0x1000071AC, symSize: 0x3C }
  - { offsetInCU: 0x21239, offset: 0x21239, size: 0x8, addend: 0x0, symName: __ZNSt3__110unique_ptrIA_PNS_16__hash_node_baseIPNS_11__hash_nodeINS_17__hash_value_typeIiP6ssl_stEEPvEEEENS_25__bucket_list_deallocatorINS_9allocatorISB_EEEEEC2B8ue170006ILb1EvEEv, symObjAddr: 0x4FC8, symBinAddr: 0x1000071E8, symSize: 0x3C }
  - { offsetInCU: 0x21273, offset: 0x21273, size: 0x8, addend: 0x0, symName: __ZNSt3__117__compressed_pairIPPNS_16__hash_node_baseIPNS_11__hash_nodeINS_17__hash_value_typeIiP6ssl_stEEPvEEEENS_25__bucket_list_deallocatorINS_9allocatorISB_EEEEEC1B8ue170006INS_16__value_init_tagESJ_EEOT_OT0_, symObjAddr: 0x5004, symBinAddr: 0x100007224, symSize: 0x3C }
  - { offsetInCU: 0x212CB, offset: 0x212CB, size: 0x8, addend: 0x0, symName: __ZNSt3__117__compressed_pairIPPNS_16__hash_node_baseIPNS_11__hash_nodeINS_17__hash_value_typeIiP6ssl_stEEPvEEEENS_25__bucket_list_deallocatorINS_9allocatorISB_EEEEEC2B8ue170006INS_16__value_init_tagESJ_EEOT_OT0_, symObjAddr: 0x5040, symBinAddr: 0x100007260, symSize: 0x40 }
  - { offsetInCU: 0x21323, offset: 0x21323, size: 0x8, addend: 0x0, symName: __ZNSt3__122__compressed_pair_elemIPPNS_16__hash_node_baseIPNS_11__hash_nodeINS_17__hash_value_typeIiP6ssl_stEEPvEEEELi0ELb0EEC2B8ue170006ENS_16__value_init_tagE, symObjAddr: 0x5080, symBinAddr: 0x1000072A0, symSize: 0x18 }
  - { offsetInCU: 0x21357, offset: 0x21357, size: 0x8, addend: 0x0, symName: __ZNSt3__122__compressed_pair_elemINS_25__bucket_list_deallocatorINS_9allocatorIPNS_16__hash_node_baseIPNS_11__hash_nodeINS_17__hash_value_typeIiP6ssl_stEEPvEEEEEEEELi1ELb0EEC2B8ue170006ENS_16__value_init_tagE, symObjAddr: 0x5098, symBinAddr: 0x1000072B8, symSize: 0x2C }
  - { offsetInCU: 0x2138B, offset: 0x2138B, size: 0x8, addend: 0x0, symName: __ZNSt3__125__bucket_list_deallocatorINS_9allocatorIPNS_16__hash_node_baseIPNS_11__hash_nodeINS_17__hash_value_typeIiP6ssl_stEEPvEEEEEEEC1B8ue170006Ev, symObjAddr: 0x50C4, symBinAddr: 0x1000072E4, symSize: 0x2C }
  - { offsetInCU: 0x213B5, offset: 0x213B5, size: 0x8, addend: 0x0, symName: __ZNSt3__125__bucket_list_deallocatorINS_9allocatorIPNS_16__hash_node_baseIPNS_11__hash_nodeINS_17__hash_value_typeIiP6ssl_stEEPvEEEEEEEC2B8ue170006Ev, symObjAddr: 0x50F0, symBinAddr: 0x100007310, symSize: 0x40 }
  - { offsetInCU: 0x213DF, offset: 0x213DF, size: 0x8, addend: 0x0, symName: __ZNSt3__117__compressed_pairImNS_9allocatorIPNS_16__hash_node_baseIPNS_11__hash_nodeINS_17__hash_value_typeIiP6ssl_stEEPvEEEEEEEC1B8ue170006IiNS_18__default_init_tagEEEOT_OT0_, symObjAddr: 0x5130, symBinAddr: 0x100007350, symSize: 0x3C }
  - { offsetInCU: 0x21437, offset: 0x21437, size: 0x8, addend: 0x0, symName: __ZNSt3__117__compressed_pairImNS_9allocatorIPNS_16__hash_node_baseIPNS_11__hash_nodeINS_17__hash_value_typeIiP6ssl_stEEPvEEEEEEEC2B8ue170006IiNS_18__default_init_tagEEEOT_OT0_, symObjAddr: 0x516C, symBinAddr: 0x10000738C, symSize: 0x40 }
  - { offsetInCU: 0x2148F, offset: 0x2148F, size: 0x8, addend: 0x0, symName: __ZNSt3__122__compressed_pair_elemImLi0ELb0EEC2B8ue170006IivEEOT_, symObjAddr: 0x51AC, symBinAddr: 0x1000073CC, symSize: 0x24 }
  - { offsetInCU: 0x214D1, offset: 0x214D1, size: 0x8, addend: 0x0, symName: __ZNSt3__122__compressed_pair_elemINS_9allocatorIPNS_16__hash_node_baseIPNS_11__hash_nodeINS_17__hash_value_typeIiP6ssl_stEEPvEEEEEELi1ELb1EEC2B8ue170006ENS_18__default_init_tagE, symObjAddr: 0x51D0, symBinAddr: 0x1000073F0, symSize: 0x2C }
  - { offsetInCU: 0x21505, offset: 0x21505, size: 0x8, addend: 0x0, symName: __ZNSt3__19allocatorIPNS_16__hash_node_baseIPNS_11__hash_nodeINS_17__hash_value_typeIiP6ssl_stEEPvEEEEEC2B8ue170006Ev, symObjAddr: 0x51FC, symBinAddr: 0x10000741C, symSize: 0x2C }
  - { offsetInCU: 0x2152F, offset: 0x2152F, size: 0x8, addend: 0x0, symName: __ZNSt3__116__non_trivial_ifILb1ENS_9allocatorIPNS_16__hash_node_baseIPNS_11__hash_nodeINS_17__hash_value_typeIiP6ssl_stEEPvEEEEEEEC2B8ue170006Ev, symObjAddr: 0x5228, symBinAddr: 0x100007448, symSize: 0x14 }
  - { offsetInCU: 0x21559, offset: 0x21559, size: 0x8, addend: 0x0, symName: __ZNSt3__117__compressed_pairINS_16__hash_node_baseIPNS_11__hash_nodeINS_17__hash_value_typeIiP6ssl_stEEPvEEEENS_9allocatorIS8_EEEC2B8ue170006ILb1EvEEv, symObjAddr: 0x523C, symBinAddr: 0x10000745C, symSize: 0x34 }
  - { offsetInCU: 0x2158E, offset: 0x2158E, size: 0x8, addend: 0x0, symName: __ZNSt3__122__compressed_pair_elemINS_16__hash_node_baseIPNS_11__hash_nodeINS_17__hash_value_typeIiP6ssl_stEEPvEEEELi0ELb0EEC2B8ue170006ENS_16__value_init_tagE, symObjAddr: 0x5270, symBinAddr: 0x100007490, symSize: 0x2C }
  - { offsetInCU: 0x215C2, offset: 0x215C2, size: 0x8, addend: 0x0, symName: __ZNSt3__122__compressed_pair_elemINS_9allocatorINS_11__hash_nodeINS_17__hash_value_typeIiP6ssl_stEEPvEEEELi1ELb1EEC2B8ue170006ENS_16__value_init_tagE, symObjAddr: 0x529C, symBinAddr: 0x1000074BC, symSize: 0x2C }
  - { offsetInCU: 0x215F6, offset: 0x215F6, size: 0x8, addend: 0x0, symName: __ZNSt3__116__hash_node_baseIPNS_11__hash_nodeINS_17__hash_value_typeIiP6ssl_stEEPvEEEC1B8ue170006Ev, symObjAddr: 0x52C8, symBinAddr: 0x1000074E8, symSize: 0x2C }
  - { offsetInCU: 0x21620, offset: 0x21620, size: 0x8, addend: 0x0, symName: __ZNSt3__116__hash_node_baseIPNS_11__hash_nodeINS_17__hash_value_typeIiP6ssl_stEEPvEEEC2B8ue170006Ev, symObjAddr: 0x52F4, symBinAddr: 0x100007514, symSize: 0x18 }
  - { offsetInCU: 0x2164A, offset: 0x2164A, size: 0x8, addend: 0x0, symName: __ZNSt3__19allocatorINS_11__hash_nodeINS_17__hash_value_typeIiP6ssl_stEEPvEEEC2B8ue170006Ev, symObjAddr: 0x530C, symBinAddr: 0x10000752C, symSize: 0x2C }
  - { offsetInCU: 0x21674, offset: 0x21674, size: 0x8, addend: 0x0, symName: __ZNSt3__116__non_trivial_ifILb1ENS_9allocatorINS_11__hash_nodeINS_17__hash_value_typeIiP6ssl_stEEPvEEEEEC2B8ue170006Ev, symObjAddr: 0x5338, symBinAddr: 0x100007558, symSize: 0x14 }
  - { offsetInCU: 0x2169E, offset: 0x2169E, size: 0x8, addend: 0x0, symName: __ZNSt3__117__compressed_pairImNS_22__unordered_map_hasherIiNS_17__hash_value_typeIiP6ssl_stEENS_4hashIiEENS_8equal_toIiEELb1EEEEC2B8ue170006IiNS_18__default_init_tagEEEOT_OT0_, symObjAddr: 0x534C, symBinAddr: 0x10000756C, symSize: 0x40 }
  - { offsetInCU: 0x216F6, offset: 0x216F6, size: 0x8, addend: 0x0, symName: __ZNSt3__122__compressed_pair_elemINS_22__unordered_map_hasherIiNS_17__hash_value_typeIiP6ssl_stEENS_4hashIiEENS_8equal_toIiEELb1EEELi1ELb1EEC2B8ue170006ENS_18__default_init_tagE, symObjAddr: 0x538C, symBinAddr: 0x1000075AC, symSize: 0x2C }
  - { offsetInCU: 0x2172A, offset: 0x2172A, size: 0x8, addend: 0x0, symName: __ZNSt3__122__unordered_map_hasherIiNS_17__hash_value_typeIiP6ssl_stEENS_4hashIiEENS_8equal_toIiEELb1EEC2B8ue170006Ev, symObjAddr: 0x53B8, symBinAddr: 0x1000075D8, symSize: 0x14 }
  - { offsetInCU: 0x21754, offset: 0x21754, size: 0x8, addend: 0x0, symName: __ZNSt3__117__compressed_pairIfNS_21__unordered_map_equalIiNS_17__hash_value_typeIiP6ssl_stEENS_8equal_toIiEENS_4hashIiEELb1EEEEC2B8ue170006IfNS_18__default_init_tagEEEOT_OT0_, symObjAddr: 0x53CC, symBinAddr: 0x1000075EC, symSize: 0x40 }
  - { offsetInCU: 0x217AC, offset: 0x217AC, size: 0x8, addend: 0x0, symName: __ZNSt3__122__compressed_pair_elemIfLi0ELb0EEC2B8ue170006IfvEEOT_, symObjAddr: 0x540C, symBinAddr: 0x10000762C, symSize: 0x24 }
  - { offsetInCU: 0x217EE, offset: 0x217EE, size: 0x8, addend: 0x0, symName: __ZNSt3__122__compressed_pair_elemINS_21__unordered_map_equalIiNS_17__hash_value_typeIiP6ssl_stEENS_8equal_toIiEENS_4hashIiEELb1EEELi1ELb1EEC2B8ue170006ENS_18__default_init_tagE, symObjAddr: 0x5430, symBinAddr: 0x100007650, symSize: 0x2C }
  - { offsetInCU: 0x21822, offset: 0x21822, size: 0x8, addend: 0x0, symName: __ZNSt3__121__unordered_map_equalIiNS_17__hash_value_typeIiP6ssl_stEENS_8equal_toIiEENS_4hashIiEELb1EEC2B8ue170006Ev, symObjAddr: 0x545C, symBinAddr: 0x10000767C, symSize: 0x14 }
  - { offsetInCU: 0x2184C, offset: 0x2184C, size: 0x8, addend: 0x0, symName: __ZNSt3__113unordered_mapIiP6ssl_stNS_4hashIiEENS_8equal_toIiEENS_9allocatorINS_4pairIKiS2_EEEEED2B8ue170006Ev, symObjAddr: 0x5470, symBinAddr: 0x100007690, symSize: 0x2C }
  - { offsetInCU: 0x21876, offset: 0x21876, size: 0x8, addend: 0x0, symName: __ZNSt3__112__hash_tableINS_17__hash_value_typeIiP6ssl_stEENS_22__unordered_map_hasherIiS4_NS_4hashIiEENS_8equal_toIiEELb1EEENS_21__unordered_map_equalIiS4_S9_S7_Lb1EEENS_9allocatorIS4_EEED1Ev, symObjAddr: 0x549C, symBinAddr: 0x1000076BC, symSize: 0x2C }
  - { offsetInCU: 0x218A2, offset: 0x218A2, size: 0x8, addend: 0x0, symName: __ZNSt3__112__hash_tableINS_17__hash_value_typeIiP6ssl_stEENS_22__unordered_map_hasherIiS4_NS_4hashIiEENS_8equal_toIiEELb1EEENS_21__unordered_map_equalIiS4_S9_S7_Lb1EEENS_9allocatorIS4_EEED2Ev, symObjAddr: 0x54C8, symBinAddr: 0x1000076E8, symSize: 0x48 }
  - { offsetInCU: 0x218CE, offset: 0x218CE, size: 0x8, addend: 0x0, symName: __ZNSt3__112__hash_tableINS_17__hash_value_typeIiP6ssl_stEENS_22__unordered_map_hasherIiS4_NS_4hashIiEENS_8equal_toIiEELb1EEENS_21__unordered_map_equalIiS4_S9_S7_Lb1EEENS_9allocatorIS4_EEE17__deallocate_nodeEPNS_16__hash_node_baseIPNS_11__hash_nodeIS4_PvEEEE, symObjAddr: 0x5510, symBinAddr: 0x100007730, symSize: 0xA8 }
  - { offsetInCU: 0x21938, offset: 0x21938, size: 0x8, addend: 0x0, symName: __ZNSt3__117__compressed_pairINS_16__hash_node_baseIPNS_11__hash_nodeINS_17__hash_value_typeIiP6ssl_stEEPvEEEENS_9allocatorIS8_EEE5firstB8ue170006Ev, symObjAddr: 0x55B8, symBinAddr: 0x1000077D8, symSize: 0x24 }
  - { offsetInCU: 0x2195E, offset: 0x2195E, size: 0x8, addend: 0x0, symName: __ZNSt3__110unique_ptrIA_PNS_16__hash_node_baseIPNS_11__hash_nodeINS_17__hash_value_typeIiP6ssl_stEEPvEEEENS_25__bucket_list_deallocatorINS_9allocatorISB_EEEEED1B8ue170006Ev, symObjAddr: 0x55DC, symBinAddr: 0x1000077FC, symSize: 0x2C }
  - { offsetInCU: 0x21988, offset: 0x21988, size: 0x8, addend: 0x0, symName: __ZNSt3__112__hash_tableINS_17__hash_value_typeIiP6ssl_stEENS_22__unordered_map_hasherIiS4_NS_4hashIiEENS_8equal_toIiEELb1EEENS_21__unordered_map_equalIiS4_S9_S7_Lb1EEENS_9allocatorIS4_EEE12__node_allocB8ue170006Ev, symObjAddr: 0x5608, symBinAddr: 0x100007828, symSize: 0x28 }
  - { offsetInCU: 0x219AE, offset: 0x219AE, size: 0x8, addend: 0x0, symName: __ZNSt3__116__hash_node_baseIPNS_11__hash_nodeINS_17__hash_value_typeIiP6ssl_stEEPvEEE8__upcastB8ue170006Ev, symObjAddr: 0x5630, symBinAddr: 0x100007850, symSize: 0x24 }
  - { offsetInCU: 0x219D4, offset: 0x219D4, size: 0x8, addend: 0x0, symName: __ZNSt3__116allocator_traitsINS_9allocatorINS_11__hash_nodeINS_17__hash_value_typeIiP6ssl_stEEPvEEEEE7destroyB8ue170006INS_4pairIKiS5_EEvvEEvRS9_PT_, symObjAddr: 0x5654, symBinAddr: 0x100007874, symSize: 0x14 }
  - { offsetInCU: 0x21A0F, offset: 0x21A0F, size: 0x8, addend: 0x0, symName: __ZNSt3__122__hash_key_value_typesINS_17__hash_value_typeIiP6ssl_stEEE9__get_ptrB8ue170006ERS4_, symObjAddr: 0x5668, symBinAddr: 0x100007888, symSize: 0x24 }
  - { offsetInCU: 0x21A32, offset: 0x21A32, size: 0x8, addend: 0x0, symName: __ZNSt3__116allocator_traitsINS_9allocatorINS_11__hash_nodeINS_17__hash_value_typeIiP6ssl_stEEPvEEEEE10deallocateB8ue170006ERS9_PS8_m, symObjAddr: 0x568C, symBinAddr: 0x1000078AC, symSize: 0x34 }
  - { offsetInCU: 0x21A74, offset: 0x21A74, size: 0x8, addend: 0x0, symName: __ZNSt3__117__compressed_pairINS_16__hash_node_baseIPNS_11__hash_nodeINS_17__hash_value_typeIiP6ssl_stEEPvEEEENS_9allocatorIS8_EEE6secondB8ue170006Ev, symObjAddr: 0x56C0, symBinAddr: 0x1000078E0, symSize: 0x24 }
  - { offsetInCU: 0x21A9A, offset: 0x21A9A, size: 0x8, addend: 0x0, symName: __ZNSt3__122__compressed_pair_elemINS_9allocatorINS_11__hash_nodeINS_17__hash_value_typeIiP6ssl_stEEPvEEEELi1ELb1EE5__getB8ue170006Ev, symObjAddr: 0x56E4, symBinAddr: 0x100007904, symSize: 0x14 }
  - { offsetInCU: 0x21AC0, offset: 0x21AC0, size: 0x8, addend: 0x0, symName: __ZNSt3__114pointer_traitsIPNS_16__hash_node_baseIPNS_11__hash_nodeINS_17__hash_value_typeIiP6ssl_stEEPvEEEEE10pointer_toB8ue170006ERSA_, symObjAddr: 0x56F8, symBinAddr: 0x100007918, symSize: 0x14 }
  - { offsetInCU: 0x21AE3, offset: 0x21AE3, size: 0x8, addend: 0x0, symName: __ZNSt3__117__hash_value_typeIiP6ssl_stE11__get_valueB8ue170006Ev, symObjAddr: 0x570C, symBinAddr: 0x10000792C, symSize: 0x24 }
  - { offsetInCU: 0x21B09, offset: 0x21B09, size: 0x8, addend: 0x0, symName: __ZNSt3__19allocatorINS_11__hash_nodeINS_17__hash_value_typeIiP6ssl_stEEPvEEE10deallocateB8ue170006EPS7_m, symObjAddr: 0x5768, symBinAddr: 0x100007988, symSize: 0x40 }
  - { offsetInCU: 0x21B4B, offset: 0x21B4B, size: 0x8, addend: 0x0, symName: __ZNSt3__122__compressed_pair_elemINS_16__hash_node_baseIPNS_11__hash_nodeINS_17__hash_value_typeIiP6ssl_stEEPvEEEELi0ELb0EE5__getB8ue170006Ev, symObjAddr: 0x57A8, symBinAddr: 0x1000079C8, symSize: 0x14 }
  - { offsetInCU: 0x21B71, offset: 0x21B71, size: 0x8, addend: 0x0, symName: __ZNSt3__110unique_ptrIA_PNS_16__hash_node_baseIPNS_11__hash_nodeINS_17__hash_value_typeIiP6ssl_stEEPvEEEENS_25__bucket_list_deallocatorINS_9allocatorISB_EEEEED2B8ue170006Ev, symObjAddr: 0x57BC, symBinAddr: 0x1000079DC, symSize: 0x30 }
  - { offsetInCU: 0x21B9B, offset: 0x21B9B, size: 0x8, addend: 0x0, symName: __ZNSt3__110unique_ptrIA_PNS_16__hash_node_baseIPNS_11__hash_nodeINS_17__hash_value_typeIiP6ssl_stEEPvEEEENS_25__bucket_list_deallocatorINS_9allocatorISB_EEEEE5resetB8ue170006EDn, symObjAddr: 0x57EC, symBinAddr: 0x100007A0C, symSize: 0x6C }
  - { offsetInCU: 0x21BDC, offset: 0x21BDC, size: 0x8, addend: 0x0, symName: __ZNSt3__117__compressed_pairIPPNS_16__hash_node_baseIPNS_11__hash_nodeINS_17__hash_value_typeIiP6ssl_stEEPvEEEENS_25__bucket_list_deallocatorINS_9allocatorISB_EEEEE5firstB8ue170006Ev, symObjAddr: 0x5858, symBinAddr: 0x100007A78, symSize: 0x24 }
  - { offsetInCU: 0x21C02, offset: 0x21C02, size: 0x8, addend: 0x0, symName: __ZNSt3__117__compressed_pairIPPNS_16__hash_node_baseIPNS_11__hash_nodeINS_17__hash_value_typeIiP6ssl_stEEPvEEEENS_25__bucket_list_deallocatorINS_9allocatorISB_EEEEE6secondB8ue170006Ev, symObjAddr: 0x587C, symBinAddr: 0x100007A9C, symSize: 0x28 }
  - { offsetInCU: 0x21C28, offset: 0x21C28, size: 0x8, addend: 0x0, symName: __ZNSt3__125__bucket_list_deallocatorINS_9allocatorIPNS_16__hash_node_baseIPNS_11__hash_nodeINS_17__hash_value_typeIiP6ssl_stEEPvEEEEEEEclB8ue170006EPSC_, symObjAddr: 0x58A4, symBinAddr: 0x100007AC4, symSize: 0x58 }
  - { offsetInCU: 0x21C5D, offset: 0x21C5D, size: 0x8, addend: 0x0, symName: __ZNSt3__122__compressed_pair_elemIPPNS_16__hash_node_baseIPNS_11__hash_nodeINS_17__hash_value_typeIiP6ssl_stEEPvEEEELi0ELb0EE5__getB8ue170006Ev, symObjAddr: 0x58FC, symBinAddr: 0x100007B1C, symSize: 0x14 }
  - { offsetInCU: 0x21C83, offset: 0x21C83, size: 0x8, addend: 0x0, symName: __ZNSt3__122__compressed_pair_elemINS_25__bucket_list_deallocatorINS_9allocatorIPNS_16__hash_node_baseIPNS_11__hash_nodeINS_17__hash_value_typeIiP6ssl_stEEPvEEEEEEEELi1ELb0EE5__getB8ue170006Ev, symObjAddr: 0x5910, symBinAddr: 0x100007B30, symSize: 0x14 }
  - { offsetInCU: 0x21CA9, offset: 0x21CA9, size: 0x8, addend: 0x0, symName: __ZNSt3__116allocator_traitsINS_9allocatorIPNS_16__hash_node_baseIPNS_11__hash_nodeINS_17__hash_value_typeIiP6ssl_stEEPvEEEEEEE10deallocateB8ue170006ERSD_PSC_m, symObjAddr: 0x5924, symBinAddr: 0x100007B44, symSize: 0x34 }
  - { offsetInCU: 0x21CEB, offset: 0x21CEB, size: 0x8, addend: 0x0, symName: __ZNSt3__125__bucket_list_deallocatorINS_9allocatorIPNS_16__hash_node_baseIPNS_11__hash_nodeINS_17__hash_value_typeIiP6ssl_stEEPvEEEEEEE7__allocB8ue170006Ev, symObjAddr: 0x5958, symBinAddr: 0x100007B78, symSize: 0x24 }
  - { offsetInCU: 0x21D11, offset: 0x21D11, size: 0x8, addend: 0x0, symName: __ZNSt3__125__bucket_list_deallocatorINS_9allocatorIPNS_16__hash_node_baseIPNS_11__hash_nodeINS_17__hash_value_typeIiP6ssl_stEEPvEEEEEEE4sizeB8ue170006Ev, symObjAddr: 0x597C, symBinAddr: 0x100007B9C, symSize: 0x24 }
  - { offsetInCU: 0x21D37, offset: 0x21D37, size: 0x8, addend: 0x0, symName: __ZNSt3__19allocatorIPNS_16__hash_node_baseIPNS_11__hash_nodeINS_17__hash_value_typeIiP6ssl_stEEPvEEEEE10deallocateB8ue170006EPSB_m, symObjAddr: 0x59A0, symBinAddr: 0x100007BC0, symSize: 0x40 }
  - { offsetInCU: 0x21D79, offset: 0x21D79, size: 0x8, addend: 0x0, symName: __ZNSt3__117__compressed_pairImNS_9allocatorIPNS_16__hash_node_baseIPNS_11__hash_nodeINS_17__hash_value_typeIiP6ssl_stEEPvEEEEEEE6secondB8ue170006Ev, symObjAddr: 0x59E0, symBinAddr: 0x100007C00, symSize: 0x24 }
  - { offsetInCU: 0x21D9F, offset: 0x21D9F, size: 0x8, addend: 0x0, symName: __ZNSt3__122__compressed_pair_elemINS_9allocatorIPNS_16__hash_node_baseIPNS_11__hash_nodeINS_17__hash_value_typeIiP6ssl_stEEPvEEEEEELi1ELb1EE5__getB8ue170006Ev, symObjAddr: 0x5A04, symBinAddr: 0x100007C24, symSize: 0x14 }
  - { offsetInCU: 0x21DC5, offset: 0x21DC5, size: 0x8, addend: 0x0, symName: __ZNSt3__117__compressed_pairImNS_9allocatorIPNS_16__hash_node_baseIPNS_11__hash_nodeINS_17__hash_value_typeIiP6ssl_stEEPvEEEEEEE5firstB8ue170006Ev, symObjAddr: 0x5A18, symBinAddr: 0x100007C38, symSize: 0x24 }
  - { offsetInCU: 0x21DEB, offset: 0x21DEB, size: 0x8, addend: 0x0, symName: __ZNSt3__122__compressed_pair_elemImLi0ELb0EE5__getB8ue170006Ev, symObjAddr: 0x5A3C, symBinAddr: 0x100007C5C, symSize: 0x14 }
  - { offsetInCU: 0x21E11, offset: 0x21E11, size: 0x8, addend: 0x0, symName: __ZNSt3__113unordered_mapIiNS_12basic_stringIcNS_11char_traitsIcEENS_9allocatorIcEEEENS_4hashIiEENS_8equal_toIiEENS4_INS_4pairIKiS6_EEEEEC2B8ue170006Ev, symObjAddr: 0x5A50, symBinAddr: 0x100007C70, symSize: 0x2C }
  - { offsetInCU: 0x21E3B, offset: 0x21E3B, size: 0x8, addend: 0x0, symName: __ZNSt3__112__hash_tableINS_17__hash_value_typeIiNS_12basic_stringIcNS_11char_traitsIcEENS_9allocatorIcEEEEEENS_22__unordered_map_hasherIiS8_NS_4hashIiEENS_8equal_toIiEELb1EEENS_21__unordered_map_equalIiS8_SD_SB_Lb1EEENS5_IS8_EEEC1Ev, symObjAddr: 0x5A7C, symBinAddr: 0x100007C9C, symSize: 0x2C }
  - { offsetInCU: 0x21E67, offset: 0x21E67, size: 0x8, addend: 0x0, symName: __ZNSt3__112__hash_tableINS_17__hash_value_typeIiNS_12basic_stringIcNS_11char_traitsIcEENS_9allocatorIcEEEEEENS_22__unordered_map_hasherIiS8_NS_4hashIiEENS_8equal_toIiEELb1EEENS_21__unordered_map_equalIiS8_SD_SB_Lb1EEENS5_IS8_EEEC2Ev, symObjAddr: 0x5AA8, symBinAddr: 0x100007CC8, symSize: 0x7C }
  - { offsetInCU: 0x21E93, offset: 0x21E93, size: 0x8, addend: 0x0, symName: __ZNSt3__110unique_ptrIA_PNS_16__hash_node_baseIPNS_11__hash_nodeINS_17__hash_value_typeIiNS_12basic_stringIcNS_11char_traitsIcEENS_9allocatorIcEEEEEEPvEEEENS_25__bucket_list_deallocatorINS7_ISF_EEEEEC1B8ue170006ILb1EvEEv, symObjAddr: 0x5B24, symBinAddr: 0x100007D44, symSize: 0x2C }
  - { offsetInCU: 0x21EC8, offset: 0x21EC8, size: 0x8, addend: 0x0, symName: __ZNSt3__117__compressed_pairINS_16__hash_node_baseIPNS_11__hash_nodeINS_17__hash_value_typeIiNS_12basic_stringIcNS_11char_traitsIcEENS_9allocatorIcEEEEEEPvEEEENS7_ISC_EEEC1B8ue170006ILb1EvEEv, symObjAddr: 0x5B50, symBinAddr: 0x100007D70, symSize: 0x2C }
  - { offsetInCU: 0x21EFD, offset: 0x21EFD, size: 0x8, addend: 0x0, symName: __ZNSt3__117__compressed_pairImNS_22__unordered_map_hasherIiNS_17__hash_value_typeIiNS_12basic_stringIcNS_11char_traitsIcEENS_9allocatorIcEEEEEENS_4hashIiEENS_8equal_toIiEELb1EEEEC1B8ue170006IiNS_18__default_init_tagEEEOT_OT0_, symObjAddr: 0x5B7C, symBinAddr: 0x100007D9C, symSize: 0x3C }
  - { offsetInCU: 0x21F55, offset: 0x21F55, size: 0x8, addend: 0x0, symName: __ZNSt3__117__compressed_pairIfNS_21__unordered_map_equalIiNS_17__hash_value_typeIiNS_12basic_stringIcNS_11char_traitsIcEENS_9allocatorIcEEEEEENS_8equal_toIiEENS_4hashIiEELb1EEEEC1B8ue170006IfNS_18__default_init_tagEEEOT_OT0_, symObjAddr: 0x5BB8, symBinAddr: 0x100007DD8, symSize: 0x3C }
  - { offsetInCU: 0x21FAD, offset: 0x21FAD, size: 0x8, addend: 0x0, symName: __ZNSt3__110unique_ptrIA_PNS_16__hash_node_baseIPNS_11__hash_nodeINS_17__hash_value_typeIiNS_12basic_stringIcNS_11char_traitsIcEENS_9allocatorIcEEEEEEPvEEEENS_25__bucket_list_deallocatorINS7_ISF_EEEEEC2B8ue170006ILb1EvEEv, symObjAddr: 0x5BF4, symBinAddr: 0x100007E14, symSize: 0x3C }
  - { offsetInCU: 0x21FE2, offset: 0x21FE2, size: 0x8, addend: 0x0, symName: __ZNSt3__117__compressed_pairIPPNS_16__hash_node_baseIPNS_11__hash_nodeINS_17__hash_value_typeIiNS_12basic_stringIcNS_11char_traitsIcEENS_9allocatorIcEEEEEEPvEEEENS_25__bucket_list_deallocatorINS7_ISF_EEEEEC1B8ue170006INS_16__value_init_tagESM_EEOT_OT0_, symObjAddr: 0x5C30, symBinAddr: 0x100007E50, symSize: 0x3C }
  - { offsetInCU: 0x2203A, offset: 0x2203A, size: 0x8, addend: 0x0, symName: __ZNSt3__117__compressed_pairIPPNS_16__hash_node_baseIPNS_11__hash_nodeINS_17__hash_value_typeIiNS_12basic_stringIcNS_11char_traitsIcEENS_9allocatorIcEEEEEEPvEEEENS_25__bucket_list_deallocatorINS7_ISF_EEEEEC2B8ue170006INS_16__value_init_tagESM_EEOT_OT0_, symObjAddr: 0x5C6C, symBinAddr: 0x100007E8C, symSize: 0x40 }
  - { offsetInCU: 0x22092, offset: 0x22092, size: 0x8, addend: 0x0, symName: __ZNSt3__122__compressed_pair_elemIPPNS_16__hash_node_baseIPNS_11__hash_nodeINS_17__hash_value_typeIiNS_12basic_stringIcNS_11char_traitsIcEENS_9allocatorIcEEEEEEPvEEEELi0ELb0EEC2B8ue170006ENS_16__value_init_tagE, symObjAddr: 0x5CAC, symBinAddr: 0x100007ECC, symSize: 0x18 }
  - { offsetInCU: 0x220C6, offset: 0x220C6, size: 0x8, addend: 0x0, symName: __ZNSt3__122__compressed_pair_elemINS_25__bucket_list_deallocatorINS_9allocatorIPNS_16__hash_node_baseIPNS_11__hash_nodeINS_17__hash_value_typeIiNS_12basic_stringIcNS_11char_traitsIcEENS2_IcEEEEEEPvEEEEEEEELi1ELb0EEC2B8ue170006ENS_16__value_init_tagE, symObjAddr: 0x5CC4, symBinAddr: 0x100007EE4, symSize: 0x2C }
  - { offsetInCU: 0x220FA, offset: 0x220FA, size: 0x8, addend: 0x0, symName: __ZNSt3__125__bucket_list_deallocatorINS_9allocatorIPNS_16__hash_node_baseIPNS_11__hash_nodeINS_17__hash_value_typeIiNS_12basic_stringIcNS_11char_traitsIcEENS1_IcEEEEEEPvEEEEEEEC1B8ue170006Ev, symObjAddr: 0x5CF0, symBinAddr: 0x100007F10, symSize: 0x2C }
  - { offsetInCU: 0x22124, offset: 0x22124, size: 0x8, addend: 0x0, symName: __ZNSt3__125__bucket_list_deallocatorINS_9allocatorIPNS_16__hash_node_baseIPNS_11__hash_nodeINS_17__hash_value_typeIiNS_12basic_stringIcNS_11char_traitsIcEENS1_IcEEEEEEPvEEEEEEEC2B8ue170006Ev, symObjAddr: 0x5D1C, symBinAddr: 0x100007F3C, symSize: 0x40 }
  - { offsetInCU: 0x2214E, offset: 0x2214E, size: 0x8, addend: 0x0, symName: __ZNSt3__117__compressed_pairImNS_9allocatorIPNS_16__hash_node_baseIPNS_11__hash_nodeINS_17__hash_value_typeIiNS_12basic_stringIcNS_11char_traitsIcEENS1_IcEEEEEEPvEEEEEEEC1B8ue170006IiNS_18__default_init_tagEEEOT_OT0_, symObjAddr: 0x5D5C, symBinAddr: 0x100007F7C, symSize: 0x3C }
  - { offsetInCU: 0x221A6, offset: 0x221A6, size: 0x8, addend: 0x0, symName: __ZNSt3__117__compressed_pairImNS_9allocatorIPNS_16__hash_node_baseIPNS_11__hash_nodeINS_17__hash_value_typeIiNS_12basic_stringIcNS_11char_traitsIcEENS1_IcEEEEEEPvEEEEEEEC2B8ue170006IiNS_18__default_init_tagEEEOT_OT0_, symObjAddr: 0x5D98, symBinAddr: 0x100007FB8, symSize: 0x40 }
  - { offsetInCU: 0x221FE, offset: 0x221FE, size: 0x8, addend: 0x0, symName: __ZNSt3__122__compressed_pair_elemINS_9allocatorIPNS_16__hash_node_baseIPNS_11__hash_nodeINS_17__hash_value_typeIiNS_12basic_stringIcNS_11char_traitsIcEENS1_IcEEEEEEPvEEEEEELi1ELb1EEC2B8ue170006ENS_18__default_init_tagE, symObjAddr: 0x5DD8, symBinAddr: 0x100007FF8, symSize: 0x2C }
  - { offsetInCU: 0x22232, offset: 0x22232, size: 0x8, addend: 0x0, symName: __ZNSt3__19allocatorIPNS_16__hash_node_baseIPNS_11__hash_nodeINS_17__hash_value_typeIiNS_12basic_stringIcNS_11char_traitsIcEENS0_IcEEEEEEPvEEEEEC2B8ue170006Ev, symObjAddr: 0x5E04, symBinAddr: 0x100008024, symSize: 0x2C }
  - { offsetInCU: 0x2225C, offset: 0x2225C, size: 0x8, addend: 0x0, symName: __ZNSt3__116__non_trivial_ifILb1ENS_9allocatorIPNS_16__hash_node_baseIPNS_11__hash_nodeINS_17__hash_value_typeIiNS_12basic_stringIcNS_11char_traitsIcEENS1_IcEEEEEEPvEEEEEEEC2B8ue170006Ev, symObjAddr: 0x5E30, symBinAddr: 0x100008050, symSize: 0x14 }
  - { offsetInCU: 0x22286, offset: 0x22286, size: 0x8, addend: 0x0, symName: __ZNSt3__117__compressed_pairINS_16__hash_node_baseIPNS_11__hash_nodeINS_17__hash_value_typeIiNS_12basic_stringIcNS_11char_traitsIcEENS_9allocatorIcEEEEEEPvEEEENS7_ISC_EEEC2B8ue170006ILb1EvEEv, symObjAddr: 0x5E44, symBinAddr: 0x100008064, symSize: 0x34 }
  - { offsetInCU: 0x222BB, offset: 0x222BB, size: 0x8, addend: 0x0, symName: __ZNSt3__122__compressed_pair_elemINS_16__hash_node_baseIPNS_11__hash_nodeINS_17__hash_value_typeIiNS_12basic_stringIcNS_11char_traitsIcEENS_9allocatorIcEEEEEEPvEEEELi0ELb0EEC2B8ue170006ENS_16__value_init_tagE, symObjAddr: 0x5E78, symBinAddr: 0x100008098, symSize: 0x2C }
  - { offsetInCU: 0x222EF, offset: 0x222EF, size: 0x8, addend: 0x0, symName: __ZNSt3__122__compressed_pair_elemINS_9allocatorINS_11__hash_nodeINS_17__hash_value_typeIiNS_12basic_stringIcNS_11char_traitsIcEENS1_IcEEEEEEPvEEEELi1ELb1EEC2B8ue170006ENS_16__value_init_tagE, symObjAddr: 0x5EA4, symBinAddr: 0x1000080C4, symSize: 0x2C }
  - { offsetInCU: 0x22323, offset: 0x22323, size: 0x8, addend: 0x0, symName: __ZNSt3__116__hash_node_baseIPNS_11__hash_nodeINS_17__hash_value_typeIiNS_12basic_stringIcNS_11char_traitsIcEENS_9allocatorIcEEEEEEPvEEEC1B8ue170006Ev, symObjAddr: 0x5ED0, symBinAddr: 0x1000080F0, symSize: 0x2C }
  - { offsetInCU: 0x2234D, offset: 0x2234D, size: 0x8, addend: 0x0, symName: __ZNSt3__116__hash_node_baseIPNS_11__hash_nodeINS_17__hash_value_typeIiNS_12basic_stringIcNS_11char_traitsIcEENS_9allocatorIcEEEEEEPvEEEC2B8ue170006Ev, symObjAddr: 0x5EFC, symBinAddr: 0x10000811C, symSize: 0x18 }
  - { offsetInCU: 0x22377, offset: 0x22377, size: 0x8, addend: 0x0, symName: __ZNSt3__19allocatorINS_11__hash_nodeINS_17__hash_value_typeIiNS_12basic_stringIcNS_11char_traitsIcEENS0_IcEEEEEEPvEEEC2B8ue170006Ev, symObjAddr: 0x5F14, symBinAddr: 0x100008134, symSize: 0x2C }
  - { offsetInCU: 0x223A1, offset: 0x223A1, size: 0x8, addend: 0x0, symName: __ZNSt3__116__non_trivial_ifILb1ENS_9allocatorINS_11__hash_nodeINS_17__hash_value_typeIiNS_12basic_stringIcNS_11char_traitsIcEENS1_IcEEEEEEPvEEEEEC2B8ue170006Ev, symObjAddr: 0x5F40, symBinAddr: 0x100008160, symSize: 0x14 }
  - { offsetInCU: 0x223CB, offset: 0x223CB, size: 0x8, addend: 0x0, symName: __ZNSt3__117__compressed_pairImNS_22__unordered_map_hasherIiNS_17__hash_value_typeIiNS_12basic_stringIcNS_11char_traitsIcEENS_9allocatorIcEEEEEENS_4hashIiEENS_8equal_toIiEELb1EEEEC2B8ue170006IiNS_18__default_init_tagEEEOT_OT0_, symObjAddr: 0x5F54, symBinAddr: 0x100008174, symSize: 0x40 }
  - { offsetInCU: 0x22423, offset: 0x22423, size: 0x8, addend: 0x0, symName: __ZNSt3__122__compressed_pair_elemINS_22__unordered_map_hasherIiNS_17__hash_value_typeIiNS_12basic_stringIcNS_11char_traitsIcEENS_9allocatorIcEEEEEENS_4hashIiEENS_8equal_toIiEELb1EEELi1ELb1EEC2B8ue170006ENS_18__default_init_tagE, symObjAddr: 0x5F94, symBinAddr: 0x1000081B4, symSize: 0x2C }
  - { offsetInCU: 0x22457, offset: 0x22457, size: 0x8, addend: 0x0, symName: __ZNSt3__122__unordered_map_hasherIiNS_17__hash_value_typeIiNS_12basic_stringIcNS_11char_traitsIcEENS_9allocatorIcEEEEEENS_4hashIiEENS_8equal_toIiEELb1EEC2B8ue170006Ev, symObjAddr: 0x5FC0, symBinAddr: 0x1000081E0, symSize: 0x14 }
  - { offsetInCU: 0x22481, offset: 0x22481, size: 0x8, addend: 0x0, symName: __ZNSt3__117__compressed_pairIfNS_21__unordered_map_equalIiNS_17__hash_value_typeIiNS_12basic_stringIcNS_11char_traitsIcEENS_9allocatorIcEEEEEENS_8equal_toIiEENS_4hashIiEELb1EEEEC2B8ue170006IfNS_18__default_init_tagEEEOT_OT0_, symObjAddr: 0x5FD4, symBinAddr: 0x1000081F4, symSize: 0x40 }
  - { offsetInCU: 0x224D9, offset: 0x224D9, size: 0x8, addend: 0x0, symName: __ZNSt3__122__compressed_pair_elemINS_21__unordered_map_equalIiNS_17__hash_value_typeIiNS_12basic_stringIcNS_11char_traitsIcEENS_9allocatorIcEEEEEENS_8equal_toIiEENS_4hashIiEELb1EEELi1ELb1EEC2B8ue170006ENS_18__default_init_tagE, symObjAddr: 0x6014, symBinAddr: 0x100008234, symSize: 0x2C }
  - { offsetInCU: 0x2250D, offset: 0x2250D, size: 0x8, addend: 0x0, symName: __ZNSt3__121__unordered_map_equalIiNS_17__hash_value_typeIiNS_12basic_stringIcNS_11char_traitsIcEENS_9allocatorIcEEEEEENS_8equal_toIiEENS_4hashIiEELb1EEC2B8ue170006Ev, symObjAddr: 0x6040, symBinAddr: 0x100008260, symSize: 0x14 }
  - { offsetInCU: 0x22537, offset: 0x22537, size: 0x8, addend: 0x0, symName: __ZNSt3__113unordered_mapIiNS_12basic_stringIcNS_11char_traitsIcEENS_9allocatorIcEEEENS_4hashIiEENS_8equal_toIiEENS4_INS_4pairIKiS6_EEEEED2B8ue170006Ev, symObjAddr: 0x6054, symBinAddr: 0x100008274, symSize: 0x2C }
  - { offsetInCU: 0x22561, offset: 0x22561, size: 0x8, addend: 0x0, symName: __ZNSt3__112__hash_tableINS_17__hash_value_typeIiNS_12basic_stringIcNS_11char_traitsIcEENS_9allocatorIcEEEEEENS_22__unordered_map_hasherIiS8_NS_4hashIiEENS_8equal_toIiEELb1EEENS_21__unordered_map_equalIiS8_SD_SB_Lb1EEENS5_IS8_EEED1Ev, symObjAddr: 0x6080, symBinAddr: 0x1000082A0, symSize: 0x2C }
  - { offsetInCU: 0x2258D, offset: 0x2258D, size: 0x8, addend: 0x0, symName: __ZNSt3__112__hash_tableINS_17__hash_value_typeIiNS_12basic_stringIcNS_11char_traitsIcEENS_9allocatorIcEEEEEENS_22__unordered_map_hasherIiS8_NS_4hashIiEENS_8equal_toIiEELb1EEENS_21__unordered_map_equalIiS8_SD_SB_Lb1EEENS5_IS8_EEED2Ev, symObjAddr: 0x60AC, symBinAddr: 0x1000082CC, symSize: 0x48 }
  - { offsetInCU: 0x225B9, offset: 0x225B9, size: 0x8, addend: 0x0, symName: __ZNSt3__112__hash_tableINS_17__hash_value_typeIiNS_12basic_stringIcNS_11char_traitsIcEENS_9allocatorIcEEEEEENS_22__unordered_map_hasherIiS8_NS_4hashIiEENS_8equal_toIiEELb1EEENS_21__unordered_map_equalIiS8_SD_SB_Lb1EEENS5_IS8_EEE17__deallocate_nodeEPNS_16__hash_node_baseIPNS_11__hash_nodeIS8_PvEEEE, symObjAddr: 0x60F4, symBinAddr: 0x100008314, symSize: 0xA8 }
  - { offsetInCU: 0x22623, offset: 0x22623, size: 0x8, addend: 0x0, symName: __ZNSt3__117__compressed_pairINS_16__hash_node_baseIPNS_11__hash_nodeINS_17__hash_value_typeIiNS_12basic_stringIcNS_11char_traitsIcEENS_9allocatorIcEEEEEEPvEEEENS7_ISC_EEE5firstB8ue170006Ev, symObjAddr: 0x619C, symBinAddr: 0x1000083BC, symSize: 0x24 }
  - { offsetInCU: 0x22649, offset: 0x22649, size: 0x8, addend: 0x0, symName: __ZNSt3__110unique_ptrIA_PNS_16__hash_node_baseIPNS_11__hash_nodeINS_17__hash_value_typeIiNS_12basic_stringIcNS_11char_traitsIcEENS_9allocatorIcEEEEEEPvEEEENS_25__bucket_list_deallocatorINS7_ISF_EEEEED1B8ue170006Ev, symObjAddr: 0x61C0, symBinAddr: 0x1000083E0, symSize: 0x2C }
  - { offsetInCU: 0x22673, offset: 0x22673, size: 0x8, addend: 0x0, symName: __ZNSt3__112__hash_tableINS_17__hash_value_typeIiNS_12basic_stringIcNS_11char_traitsIcEENS_9allocatorIcEEEEEENS_22__unordered_map_hasherIiS8_NS_4hashIiEENS_8equal_toIiEELb1EEENS_21__unordered_map_equalIiS8_SD_SB_Lb1EEENS5_IS8_EEE12__node_allocB8ue170006Ev, symObjAddr: 0x61EC, symBinAddr: 0x10000840C, symSize: 0x28 }
  - { offsetInCU: 0x22699, offset: 0x22699, size: 0x8, addend: 0x0, symName: __ZNSt3__116__hash_node_baseIPNS_11__hash_nodeINS_17__hash_value_typeIiNS_12basic_stringIcNS_11char_traitsIcEENS_9allocatorIcEEEEEEPvEEE8__upcastB8ue170006Ev, symObjAddr: 0x6214, symBinAddr: 0x100008434, symSize: 0x24 }
  - { offsetInCU: 0x226BF, offset: 0x226BF, size: 0x8, addend: 0x0, symName: __ZNSt3__116allocator_traitsINS_9allocatorINS_11__hash_nodeINS_17__hash_value_typeIiNS_12basic_stringIcNS_11char_traitsIcEENS1_IcEEEEEEPvEEEEE7destroyB8ue170006INS_4pairIKiS8_EEvvEEvRSC_PT_, symObjAddr: 0x6238, symBinAddr: 0x100008458, symSize: 0x28 }
  - { offsetInCU: 0x226FA, offset: 0x226FA, size: 0x8, addend: 0x0, symName: __ZNSt3__122__hash_key_value_typesINS_17__hash_value_typeIiNS_12basic_stringIcNS_11char_traitsIcEENS_9allocatorIcEEEEEEE9__get_ptrB8ue170006ERS8_, symObjAddr: 0x6260, symBinAddr: 0x100008480, symSize: 0x24 }
  - { offsetInCU: 0x2271D, offset: 0x2271D, size: 0x8, addend: 0x0, symName: __ZNSt3__116allocator_traitsINS_9allocatorINS_11__hash_nodeINS_17__hash_value_typeIiNS_12basic_stringIcNS_11char_traitsIcEENS1_IcEEEEEEPvEEEEE10deallocateB8ue170006ERSC_PSB_m, symObjAddr: 0x6284, symBinAddr: 0x1000084A4, symSize: 0x34 }
  - { offsetInCU: 0x2275F, offset: 0x2275F, size: 0x8, addend: 0x0, symName: __ZNSt3__117__compressed_pairINS_16__hash_node_baseIPNS_11__hash_nodeINS_17__hash_value_typeIiNS_12basic_stringIcNS_11char_traitsIcEENS_9allocatorIcEEEEEEPvEEEENS7_ISC_EEE6secondB8ue170006Ev, symObjAddr: 0x62B8, symBinAddr: 0x1000084D8, symSize: 0x24 }
  - { offsetInCU: 0x22785, offset: 0x22785, size: 0x8, addend: 0x0, symName: __ZNSt3__122__compressed_pair_elemINS_9allocatorINS_11__hash_nodeINS_17__hash_value_typeIiNS_12basic_stringIcNS_11char_traitsIcEENS1_IcEEEEEEPvEEEELi1ELb1EE5__getB8ue170006Ev, symObjAddr: 0x62DC, symBinAddr: 0x1000084FC, symSize: 0x14 }
  - { offsetInCU: 0x227AB, offset: 0x227AB, size: 0x8, addend: 0x0, symName: __ZNSt3__114pointer_traitsIPNS_16__hash_node_baseIPNS_11__hash_nodeINS_17__hash_value_typeIiNS_12basic_stringIcNS_11char_traitsIcEENS_9allocatorIcEEEEEEPvEEEEE10pointer_toB8ue170006ERSE_, symObjAddr: 0x62F0, symBinAddr: 0x100008510, symSize: 0x14 }
  - { offsetInCU: 0x227CE, offset: 0x227CE, size: 0x8, addend: 0x0, symName: __ZNSt3__14pairIKiNS_12basic_stringIcNS_11char_traitsIcEENS_9allocatorIcEEEEED1Ev, symObjAddr: 0x6304, symBinAddr: 0x100008524, symSize: 0x2C }
  - { offsetInCU: 0x227FA, offset: 0x227FA, size: 0x8, addend: 0x0, symName: __ZNSt3__14pairIKiNS_12basic_stringIcNS_11char_traitsIcEENS_9allocatorIcEEEEED2Ev, symObjAddr: 0x6330, symBinAddr: 0x100008550, symSize: 0x30 }
  - { offsetInCU: 0x22826, offset: 0x22826, size: 0x8, addend: 0x0, symName: __ZNSt3__117__hash_value_typeIiNS_12basic_stringIcNS_11char_traitsIcEENS_9allocatorIcEEEEE11__get_valueB8ue170006Ev, symObjAddr: 0x6360, symBinAddr: 0x100008580, symSize: 0x24 }
  - { offsetInCU: 0x2284C, offset: 0x2284C, size: 0x8, addend: 0x0, symName: __ZNSt3__19allocatorINS_11__hash_nodeINS_17__hash_value_typeIiNS_12basic_stringIcNS_11char_traitsIcEENS0_IcEEEEEEPvEEE10deallocateB8ue170006EPSA_m, symObjAddr: 0x63BC, symBinAddr: 0x1000085DC, symSize: 0x44 }
  - { offsetInCU: 0x2288E, offset: 0x2288E, size: 0x8, addend: 0x0, symName: __ZNSt3__122__compressed_pair_elemINS_16__hash_node_baseIPNS_11__hash_nodeINS_17__hash_value_typeIiNS_12basic_stringIcNS_11char_traitsIcEENS_9allocatorIcEEEEEEPvEEEELi0ELb0EE5__getB8ue170006Ev, symObjAddr: 0x6400, symBinAddr: 0x100008620, symSize: 0x14 }
  - { offsetInCU: 0x228B4, offset: 0x228B4, size: 0x8, addend: 0x0, symName: __ZNSt3__110unique_ptrIA_PNS_16__hash_node_baseIPNS_11__hash_nodeINS_17__hash_value_typeIiNS_12basic_stringIcNS_11char_traitsIcEENS_9allocatorIcEEEEEEPvEEEENS_25__bucket_list_deallocatorINS7_ISF_EEEEED2B8ue170006Ev, symObjAddr: 0x6414, symBinAddr: 0x100008634, symSize: 0x30 }
  - { offsetInCU: 0x228DE, offset: 0x228DE, size: 0x8, addend: 0x0, symName: __ZNSt3__110unique_ptrIA_PNS_16__hash_node_baseIPNS_11__hash_nodeINS_17__hash_value_typeIiNS_12basic_stringIcNS_11char_traitsIcEENS_9allocatorIcEEEEEEPvEEEENS_25__bucket_list_deallocatorINS7_ISF_EEEEE5resetB8ue170006EDn, symObjAddr: 0x6444, symBinAddr: 0x100008664, symSize: 0x6C }
  - { offsetInCU: 0x2291F, offset: 0x2291F, size: 0x8, addend: 0x0, symName: __ZNSt3__117__compressed_pairIPPNS_16__hash_node_baseIPNS_11__hash_nodeINS_17__hash_value_typeIiNS_12basic_stringIcNS_11char_traitsIcEENS_9allocatorIcEEEEEEPvEEEENS_25__bucket_list_deallocatorINS7_ISF_EEEEE5firstB8ue170006Ev, symObjAddr: 0x64B0, symBinAddr: 0x1000086D0, symSize: 0x24 }
  - { offsetInCU: 0x22945, offset: 0x22945, size: 0x8, addend: 0x0, symName: __ZNSt3__117__compressed_pairIPPNS_16__hash_node_baseIPNS_11__hash_nodeINS_17__hash_value_typeIiNS_12basic_stringIcNS_11char_traitsIcEENS_9allocatorIcEEEEEEPvEEEENS_25__bucket_list_deallocatorINS7_ISF_EEEEE6secondB8ue170006Ev, symObjAddr: 0x64D4, symBinAddr: 0x1000086F4, symSize: 0x28 }
  - { offsetInCU: 0x2296B, offset: 0x2296B, size: 0x8, addend: 0x0, symName: __ZNSt3__125__bucket_list_deallocatorINS_9allocatorIPNS_16__hash_node_baseIPNS_11__hash_nodeINS_17__hash_value_typeIiNS_12basic_stringIcNS_11char_traitsIcEENS1_IcEEEEEEPvEEEEEEEclB8ue170006EPSF_, symObjAddr: 0x64FC, symBinAddr: 0x10000871C, symSize: 0x58 }
  - { offsetInCU: 0x229A0, offset: 0x229A0, size: 0x8, addend: 0x0, symName: __ZNSt3__122__compressed_pair_elemIPPNS_16__hash_node_baseIPNS_11__hash_nodeINS_17__hash_value_typeIiNS_12basic_stringIcNS_11char_traitsIcEENS_9allocatorIcEEEEEEPvEEEELi0ELb0EE5__getB8ue170006Ev, symObjAddr: 0x6554, symBinAddr: 0x100008774, symSize: 0x14 }
  - { offsetInCU: 0x229C6, offset: 0x229C6, size: 0x8, addend: 0x0, symName: __ZNSt3__122__compressed_pair_elemINS_25__bucket_list_deallocatorINS_9allocatorIPNS_16__hash_node_baseIPNS_11__hash_nodeINS_17__hash_value_typeIiNS_12basic_stringIcNS_11char_traitsIcEENS2_IcEEEEEEPvEEEEEEEELi1ELb0EE5__getB8ue170006Ev, symObjAddr: 0x6568, symBinAddr: 0x100008788, symSize: 0x14 }
  - { offsetInCU: 0x229EC, offset: 0x229EC, size: 0x8, addend: 0x0, symName: __ZNSt3__116allocator_traitsINS_9allocatorIPNS_16__hash_node_baseIPNS_11__hash_nodeINS_17__hash_value_typeIiNS_12basic_stringIcNS_11char_traitsIcEENS1_IcEEEEEEPvEEEEEEE10deallocateB8ue170006ERSG_PSF_m, symObjAddr: 0x657C, symBinAddr: 0x10000879C, symSize: 0x34 }
  - { offsetInCU: 0x22A2E, offset: 0x22A2E, size: 0x8, addend: 0x0, symName: __ZNSt3__125__bucket_list_deallocatorINS_9allocatorIPNS_16__hash_node_baseIPNS_11__hash_nodeINS_17__hash_value_typeIiNS_12basic_stringIcNS_11char_traitsIcEENS1_IcEEEEEEPvEEEEEEE7__allocB8ue170006Ev, symObjAddr: 0x65B0, symBinAddr: 0x1000087D0, symSize: 0x24 }
  - { offsetInCU: 0x22A54, offset: 0x22A54, size: 0x8, addend: 0x0, symName: __ZNSt3__125__bucket_list_deallocatorINS_9allocatorIPNS_16__hash_node_baseIPNS_11__hash_nodeINS_17__hash_value_typeIiNS_12basic_stringIcNS_11char_traitsIcEENS1_IcEEEEEEPvEEEEEEE4sizeB8ue170006Ev, symObjAddr: 0x65D4, symBinAddr: 0x1000087F4, symSize: 0x24 }
  - { offsetInCU: 0x22A7A, offset: 0x22A7A, size: 0x8, addend: 0x0, symName: __ZNSt3__19allocatorIPNS_16__hash_node_baseIPNS_11__hash_nodeINS_17__hash_value_typeIiNS_12basic_stringIcNS_11char_traitsIcEENS0_IcEEEEEEPvEEEEE10deallocateB8ue170006EPSE_m, symObjAddr: 0x65F8, symBinAddr: 0x100008818, symSize: 0x40 }
  - { offsetInCU: 0x22ABC, offset: 0x22ABC, size: 0x8, addend: 0x0, symName: __ZNSt3__117__compressed_pairImNS_9allocatorIPNS_16__hash_node_baseIPNS_11__hash_nodeINS_17__hash_value_typeIiNS_12basic_stringIcNS_11char_traitsIcEENS1_IcEEEEEEPvEEEEEEE6secondB8ue170006Ev, symObjAddr: 0x6638, symBinAddr: 0x100008858, symSize: 0x24 }
  - { offsetInCU: 0x22AE2, offset: 0x22AE2, size: 0x8, addend: 0x0, symName: __ZNSt3__122__compressed_pair_elemINS_9allocatorIPNS_16__hash_node_baseIPNS_11__hash_nodeINS_17__hash_value_typeIiNS_12basic_stringIcNS_11char_traitsIcEENS1_IcEEEEEEPvEEEEEELi1ELb1EE5__getB8ue170006Ev, symObjAddr: 0x665C, symBinAddr: 0x10000887C, symSize: 0x14 }
  - { offsetInCU: 0x22B08, offset: 0x22B08, size: 0x8, addend: 0x0, symName: __ZNSt3__117__compressed_pairImNS_9allocatorIPNS_16__hash_node_baseIPNS_11__hash_nodeINS_17__hash_value_typeIiNS_12basic_stringIcNS_11char_traitsIcEENS1_IcEEEEEEPvEEEEEEE5firstB8ue170006Ev, symObjAddr: 0x6670, symBinAddr: 0x100008890, symSize: 0x24 }
  - { offsetInCU: 0x22B2E, offset: 0x22B2E, size: 0x8, addend: 0x0, symName: __ZNSt3__113unordered_mapINS_12basic_stringIcNS_11char_traitsIcEENS_9allocatorIcEEEES6_NS_4hashIS6_EENS_8equal_toIS6_EENS4_INS_4pairIKS6_S6_EEEEEC2B8ue170006Ev, symObjAddr: 0x6694, symBinAddr: 0x1000088B4, symSize: 0x2C }
  - { offsetInCU: 0x22B58, offset: 0x22B58, size: 0x8, addend: 0x0, symName: __ZNSt3__112__hash_tableINS_17__hash_value_typeINS_12basic_stringIcNS_11char_traitsIcEENS_9allocatorIcEEEES7_EENS_22__unordered_map_hasherIS7_S8_NS_4hashIS7_EENS_8equal_toIS7_EELb1EEENS_21__unordered_map_equalIS7_S8_SD_SB_Lb1EEENS5_IS8_EEEC1Ev, symObjAddr: 0x66C0, symBinAddr: 0x1000088E0, symSize: 0x2C }
  - { offsetInCU: 0x22B84, offset: 0x22B84, size: 0x8, addend: 0x0, symName: __ZNSt3__112__hash_tableINS_17__hash_value_typeINS_12basic_stringIcNS_11char_traitsIcEENS_9allocatorIcEEEES7_EENS_22__unordered_map_hasherIS7_S8_NS_4hashIS7_EENS_8equal_toIS7_EELb1EEENS_21__unordered_map_equalIS7_S8_SD_SB_Lb1EEENS5_IS8_EEEC2Ev, symObjAddr: 0x66EC, symBinAddr: 0x10000890C, symSize: 0x7C }
  - { offsetInCU: 0x22BB0, offset: 0x22BB0, size: 0x8, addend: 0x0, symName: __ZNSt3__110unique_ptrIA_PNS_16__hash_node_baseIPNS_11__hash_nodeINS_17__hash_value_typeINS_12basic_stringIcNS_11char_traitsIcEENS_9allocatorIcEEEES9_EEPvEEEENS_25__bucket_list_deallocatorINS7_ISF_EEEEEC1B8ue170006ILb1EvEEv, symObjAddr: 0x6768, symBinAddr: 0x100008988, symSize: 0x2C }
  - { offsetInCU: 0x22BE5, offset: 0x22BE5, size: 0x8, addend: 0x0, symName: __ZNSt3__117__compressed_pairINS_16__hash_node_baseIPNS_11__hash_nodeINS_17__hash_value_typeINS_12basic_stringIcNS_11char_traitsIcEENS_9allocatorIcEEEES9_EEPvEEEENS7_ISC_EEEC1B8ue170006ILb1EvEEv, symObjAddr: 0x6794, symBinAddr: 0x1000089B4, symSize: 0x2C }
  - { offsetInCU: 0x22C1A, offset: 0x22C1A, size: 0x8, addend: 0x0, symName: __ZNSt3__117__compressed_pairImNS_22__unordered_map_hasherINS_12basic_stringIcNS_11char_traitsIcEENS_9allocatorIcEEEENS_17__hash_value_typeIS7_S7_EENS_4hashIS7_EENS_8equal_toIS7_EELb1EEEEC1B8ue170006IiNS_18__default_init_tagEEEOT_OT0_, symObjAddr: 0x67C0, symBinAddr: 0x1000089E0, symSize: 0x3C }
  - { offsetInCU: 0x22C72, offset: 0x22C72, size: 0x8, addend: 0x0, symName: __ZNSt3__117__compressed_pairIfNS_21__unordered_map_equalINS_12basic_stringIcNS_11char_traitsIcEENS_9allocatorIcEEEENS_17__hash_value_typeIS7_S7_EENS_8equal_toIS7_EENS_4hashIS7_EELb1EEEEC1B8ue170006IfNS_18__default_init_tagEEEOT_OT0_, symObjAddr: 0x67FC, symBinAddr: 0x100008A1C, symSize: 0x3C }
  - { offsetInCU: 0x22CCA, offset: 0x22CCA, size: 0x8, addend: 0x0, symName: __ZNSt3__110unique_ptrIA_PNS_16__hash_node_baseIPNS_11__hash_nodeINS_17__hash_value_typeINS_12basic_stringIcNS_11char_traitsIcEENS_9allocatorIcEEEES9_EEPvEEEENS_25__bucket_list_deallocatorINS7_ISF_EEEEEC2B8ue170006ILb1EvEEv, symObjAddr: 0x6838, symBinAddr: 0x100008A58, symSize: 0x3C }
  - { offsetInCU: 0x22CFF, offset: 0x22CFF, size: 0x8, addend: 0x0, symName: __ZNSt3__117__compressed_pairIPPNS_16__hash_node_baseIPNS_11__hash_nodeINS_17__hash_value_typeINS_12basic_stringIcNS_11char_traitsIcEENS_9allocatorIcEEEES9_EEPvEEEENS_25__bucket_list_deallocatorINS7_ISF_EEEEEC1B8ue170006INS_16__value_init_tagESM_EEOT_OT0_, symObjAddr: 0x6874, symBinAddr: 0x100008A94, symSize: 0x3C }
  - { offsetInCU: 0x22D57, offset: 0x22D57, size: 0x8, addend: 0x0, symName: __ZNSt3__117__compressed_pairIPPNS_16__hash_node_baseIPNS_11__hash_nodeINS_17__hash_value_typeINS_12basic_stringIcNS_11char_traitsIcEENS_9allocatorIcEEEES9_EEPvEEEENS_25__bucket_list_deallocatorINS7_ISF_EEEEEC2B8ue170006INS_16__value_init_tagESM_EEOT_OT0_, symObjAddr: 0x68B0, symBinAddr: 0x100008AD0, symSize: 0x40 }
  - { offsetInCU: 0x22DAF, offset: 0x22DAF, size: 0x8, addend: 0x0, symName: __ZNSt3__122__compressed_pair_elemIPPNS_16__hash_node_baseIPNS_11__hash_nodeINS_17__hash_value_typeINS_12basic_stringIcNS_11char_traitsIcEENS_9allocatorIcEEEES9_EEPvEEEELi0ELb0EEC2B8ue170006ENS_16__value_init_tagE, symObjAddr: 0x68F0, symBinAddr: 0x100008B10, symSize: 0x18 }
  - { offsetInCU: 0x22DE3, offset: 0x22DE3, size: 0x8, addend: 0x0, symName: __ZNSt3__122__compressed_pair_elemINS_25__bucket_list_deallocatorINS_9allocatorIPNS_16__hash_node_baseIPNS_11__hash_nodeINS_17__hash_value_typeINS_12basic_stringIcNS_11char_traitsIcEENS2_IcEEEESA_EEPvEEEEEEEELi1ELb0EEC2B8ue170006ENS_16__value_init_tagE, symObjAddr: 0x6908, symBinAddr: 0x100008B28, symSize: 0x2C }
  - { offsetInCU: 0x22E17, offset: 0x22E17, size: 0x8, addend: 0x0, symName: __ZNSt3__125__bucket_list_deallocatorINS_9allocatorIPNS_16__hash_node_baseIPNS_11__hash_nodeINS_17__hash_value_typeINS_12basic_stringIcNS_11char_traitsIcEENS1_IcEEEES9_EEPvEEEEEEEC1B8ue170006Ev, symObjAddr: 0x6934, symBinAddr: 0x100008B54, symSize: 0x2C }
  - { offsetInCU: 0x22E41, offset: 0x22E41, size: 0x8, addend: 0x0, symName: __ZNSt3__125__bucket_list_deallocatorINS_9allocatorIPNS_16__hash_node_baseIPNS_11__hash_nodeINS_17__hash_value_typeINS_12basic_stringIcNS_11char_traitsIcEENS1_IcEEEES9_EEPvEEEEEEEC2B8ue170006Ev, symObjAddr: 0x6960, symBinAddr: 0x100008B80, symSize: 0x40 }
  - { offsetInCU: 0x22E6B, offset: 0x22E6B, size: 0x8, addend: 0x0, symName: __ZNSt3__117__compressed_pairImNS_9allocatorIPNS_16__hash_node_baseIPNS_11__hash_nodeINS_17__hash_value_typeINS_12basic_stringIcNS_11char_traitsIcEENS1_IcEEEES9_EEPvEEEEEEEC1B8ue170006IiNS_18__default_init_tagEEEOT_OT0_, symObjAddr: 0x69A0, symBinAddr: 0x100008BC0, symSize: 0x3C }
  - { offsetInCU: 0x22EC3, offset: 0x22EC3, size: 0x8, addend: 0x0, symName: __ZNSt3__117__compressed_pairImNS_9allocatorIPNS_16__hash_node_baseIPNS_11__hash_nodeINS_17__hash_value_typeINS_12basic_stringIcNS_11char_traitsIcEENS1_IcEEEES9_EEPvEEEEEEEC2B8ue170006IiNS_18__default_init_tagEEEOT_OT0_, symObjAddr: 0x69DC, symBinAddr: 0x100008BFC, symSize: 0x40 }
  - { offsetInCU: 0x22F1B, offset: 0x22F1B, size: 0x8, addend: 0x0, symName: __ZNSt3__122__compressed_pair_elemINS_9allocatorIPNS_16__hash_node_baseIPNS_11__hash_nodeINS_17__hash_value_typeINS_12basic_stringIcNS_11char_traitsIcEENS1_IcEEEES9_EEPvEEEEEELi1ELb1EEC2B8ue170006ENS_18__default_init_tagE, symObjAddr: 0x6A1C, symBinAddr: 0x100008C3C, symSize: 0x2C }
  - { offsetInCU: 0x22F4F, offset: 0x22F4F, size: 0x8, addend: 0x0, symName: __ZNSt3__19allocatorIPNS_16__hash_node_baseIPNS_11__hash_nodeINS_17__hash_value_typeINS_12basic_stringIcNS_11char_traitsIcEENS0_IcEEEES8_EEPvEEEEEC2B8ue170006Ev, symObjAddr: 0x6A48, symBinAddr: 0x100008C68, symSize: 0x2C }
  - { offsetInCU: 0x22F79, offset: 0x22F79, size: 0x8, addend: 0x0, symName: __ZNSt3__116__non_trivial_ifILb1ENS_9allocatorIPNS_16__hash_node_baseIPNS_11__hash_nodeINS_17__hash_value_typeINS_12basic_stringIcNS_11char_traitsIcEENS1_IcEEEES9_EEPvEEEEEEEC2B8ue170006Ev, symObjAddr: 0x6A74, symBinAddr: 0x100008C94, symSize: 0x14 }
  - { offsetInCU: 0x22FA3, offset: 0x22FA3, size: 0x8, addend: 0x0, symName: __ZNSt3__117__compressed_pairINS_16__hash_node_baseIPNS_11__hash_nodeINS_17__hash_value_typeINS_12basic_stringIcNS_11char_traitsIcEENS_9allocatorIcEEEES9_EEPvEEEENS7_ISC_EEEC2B8ue170006ILb1EvEEv, symObjAddr: 0x6A88, symBinAddr: 0x100008CA8, symSize: 0x34 }
  - { offsetInCU: 0x22FD8, offset: 0x22FD8, size: 0x8, addend: 0x0, symName: __ZNSt3__122__compressed_pair_elemINS_16__hash_node_baseIPNS_11__hash_nodeINS_17__hash_value_typeINS_12basic_stringIcNS_11char_traitsIcEENS_9allocatorIcEEEES9_EEPvEEEELi0ELb0EEC2B8ue170006ENS_16__value_init_tagE, symObjAddr: 0x6ABC, symBinAddr: 0x100008CDC, symSize: 0x2C }
  - { offsetInCU: 0x2300C, offset: 0x2300C, size: 0x8, addend: 0x0, symName: __ZNSt3__122__compressed_pair_elemINS_9allocatorINS_11__hash_nodeINS_17__hash_value_typeINS_12basic_stringIcNS_11char_traitsIcEENS1_IcEEEES8_EEPvEEEELi1ELb1EEC2B8ue170006ENS_16__value_init_tagE, symObjAddr: 0x6AE8, symBinAddr: 0x100008D08, symSize: 0x2C }
  - { offsetInCU: 0x23040, offset: 0x23040, size: 0x8, addend: 0x0, symName: __ZNSt3__116__hash_node_baseIPNS_11__hash_nodeINS_17__hash_value_typeINS_12basic_stringIcNS_11char_traitsIcEENS_9allocatorIcEEEES8_EEPvEEEC1B8ue170006Ev, symObjAddr: 0x6B14, symBinAddr: 0x100008D34, symSize: 0x2C }
  - { offsetInCU: 0x2306A, offset: 0x2306A, size: 0x8, addend: 0x0, symName: __ZNSt3__116__hash_node_baseIPNS_11__hash_nodeINS_17__hash_value_typeINS_12basic_stringIcNS_11char_traitsIcEENS_9allocatorIcEEEES8_EEPvEEEC2B8ue170006Ev, symObjAddr: 0x6B40, symBinAddr: 0x100008D60, symSize: 0x18 }
  - { offsetInCU: 0x23094, offset: 0x23094, size: 0x8, addend: 0x0, symName: __ZNSt3__19allocatorINS_11__hash_nodeINS_17__hash_value_typeINS_12basic_stringIcNS_11char_traitsIcEENS0_IcEEEES7_EEPvEEEC2B8ue170006Ev, symObjAddr: 0x6B58, symBinAddr: 0x100008D78, symSize: 0x2C }
  - { offsetInCU: 0x230BE, offset: 0x230BE, size: 0x8, addend: 0x0, symName: __ZNSt3__116__non_trivial_ifILb1ENS_9allocatorINS_11__hash_nodeINS_17__hash_value_typeINS_12basic_stringIcNS_11char_traitsIcEENS1_IcEEEES8_EEPvEEEEEC2B8ue170006Ev, symObjAddr: 0x6B84, symBinAddr: 0x100008DA4, symSize: 0x14 }
  - { offsetInCU: 0x230E8, offset: 0x230E8, size: 0x8, addend: 0x0, symName: __ZNSt3__117__compressed_pairImNS_22__unordered_map_hasherINS_12basic_stringIcNS_11char_traitsIcEENS_9allocatorIcEEEENS_17__hash_value_typeIS7_S7_EENS_4hashIS7_EENS_8equal_toIS7_EELb1EEEEC2B8ue170006IiNS_18__default_init_tagEEEOT_OT0_, symObjAddr: 0x6B98, symBinAddr: 0x100008DB8, symSize: 0x40 }
  - { offsetInCU: 0x23140, offset: 0x23140, size: 0x8, addend: 0x0, symName: __ZNSt3__122__compressed_pair_elemINS_22__unordered_map_hasherINS_12basic_stringIcNS_11char_traitsIcEENS_9allocatorIcEEEENS_17__hash_value_typeIS7_S7_EENS_4hashIS7_EENS_8equal_toIS7_EELb1EEELi1ELb1EEC2B8ue170006ENS_18__default_init_tagE, symObjAddr: 0x6BD8, symBinAddr: 0x100008DF8, symSize: 0x2C }
  - { offsetInCU: 0x23174, offset: 0x23174, size: 0x8, addend: 0x0, symName: __ZNSt3__122__unordered_map_hasherINS_12basic_stringIcNS_11char_traitsIcEENS_9allocatorIcEEEENS_17__hash_value_typeIS6_S6_EENS_4hashIS6_EENS_8equal_toIS6_EELb1EEC2B8ue170006Ev, symObjAddr: 0x6C04, symBinAddr: 0x100008E24, symSize: 0x14 }
  - { offsetInCU: 0x2319E, offset: 0x2319E, size: 0x8, addend: 0x0, symName: __ZNSt3__117__compressed_pairIfNS_21__unordered_map_equalINS_12basic_stringIcNS_11char_traitsIcEENS_9allocatorIcEEEENS_17__hash_value_typeIS7_S7_EENS_8equal_toIS7_EENS_4hashIS7_EELb1EEEEC2B8ue170006IfNS_18__default_init_tagEEEOT_OT0_, symObjAddr: 0x6C18, symBinAddr: 0x100008E38, symSize: 0x40 }
  - { offsetInCU: 0x231F6, offset: 0x231F6, size: 0x8, addend: 0x0, symName: __ZNSt3__122__compressed_pair_elemINS_21__unordered_map_equalINS_12basic_stringIcNS_11char_traitsIcEENS_9allocatorIcEEEENS_17__hash_value_typeIS7_S7_EENS_8equal_toIS7_EENS_4hashIS7_EELb1EEELi1ELb1EEC2B8ue170006ENS_18__default_init_tagE, symObjAddr: 0x6C58, symBinAddr: 0x100008E78, symSize: 0x2C }
  - { offsetInCU: 0x2322A, offset: 0x2322A, size: 0x8, addend: 0x0, symName: __ZNSt3__121__unordered_map_equalINS_12basic_stringIcNS_11char_traitsIcEENS_9allocatorIcEEEENS_17__hash_value_typeIS6_S6_EENS_8equal_toIS6_EENS_4hashIS6_EELb1EEC2B8ue170006Ev, symObjAddr: 0x6C84, symBinAddr: 0x100008EA4, symSize: 0x14 }
  - { offsetInCU: 0x23254, offset: 0x23254, size: 0x8, addend: 0x0, symName: __ZNSt3__113unordered_mapINS_12basic_stringIcNS_11char_traitsIcEENS_9allocatorIcEEEES6_NS_4hashIS6_EENS_8equal_toIS6_EENS4_INS_4pairIKS6_S6_EEEEED2B8ue170006Ev, symObjAddr: 0x6C98, symBinAddr: 0x100008EB8, symSize: 0x2C }
  - { offsetInCU: 0x2327E, offset: 0x2327E, size: 0x8, addend: 0x0, symName: __ZNSt3__112__hash_tableINS_17__hash_value_typeINS_12basic_stringIcNS_11char_traitsIcEENS_9allocatorIcEEEES7_EENS_22__unordered_map_hasherIS7_S8_NS_4hashIS7_EENS_8equal_toIS7_EELb1EEENS_21__unordered_map_equalIS7_S8_SD_SB_Lb1EEENS5_IS8_EEED1Ev, symObjAddr: 0x6CC4, symBinAddr: 0x100008EE4, symSize: 0x2C }
  - { offsetInCU: 0x232AA, offset: 0x232AA, size: 0x8, addend: 0x0, symName: __ZNSt3__112__hash_tableINS_17__hash_value_typeINS_12basic_stringIcNS_11char_traitsIcEENS_9allocatorIcEEEES7_EENS_22__unordered_map_hasherIS7_S8_NS_4hashIS7_EENS_8equal_toIS7_EELb1EEENS_21__unordered_map_equalIS7_S8_SD_SB_Lb1EEENS5_IS8_EEED2Ev, symObjAddr: 0x6CF0, symBinAddr: 0x100008F10, symSize: 0x48 }
  - { offsetInCU: 0x232D6, offset: 0x232D6, size: 0x8, addend: 0x0, symName: __ZNSt3__112__hash_tableINS_17__hash_value_typeINS_12basic_stringIcNS_11char_traitsIcEENS_9allocatorIcEEEES7_EENS_22__unordered_map_hasherIS7_S8_NS_4hashIS7_EENS_8equal_toIS7_EELb1EEENS_21__unordered_map_equalIS7_S8_SD_SB_Lb1EEENS5_IS8_EEE17__deallocate_nodeEPNS_16__hash_node_baseIPNS_11__hash_nodeIS8_PvEEEE, symObjAddr: 0x6D38, symBinAddr: 0x100008F58, symSize: 0xA8 }
  - { offsetInCU: 0x23340, offset: 0x23340, size: 0x8, addend: 0x0, symName: __ZNSt3__117__compressed_pairINS_16__hash_node_baseIPNS_11__hash_nodeINS_17__hash_value_typeINS_12basic_stringIcNS_11char_traitsIcEENS_9allocatorIcEEEES9_EEPvEEEENS7_ISC_EEE5firstB8ue170006Ev, symObjAddr: 0x6DE0, symBinAddr: 0x100009000, symSize: 0x24 }
  - { offsetInCU: 0x23366, offset: 0x23366, size: 0x8, addend: 0x0, symName: __ZNSt3__110unique_ptrIA_PNS_16__hash_node_baseIPNS_11__hash_nodeINS_17__hash_value_typeINS_12basic_stringIcNS_11char_traitsIcEENS_9allocatorIcEEEES9_EEPvEEEENS_25__bucket_list_deallocatorINS7_ISF_EEEEED1B8ue170006Ev, symObjAddr: 0x6E04, symBinAddr: 0x100009024, symSize: 0x2C }
  - { offsetInCU: 0x23390, offset: 0x23390, size: 0x8, addend: 0x0, symName: __ZNSt3__112__hash_tableINS_17__hash_value_typeINS_12basic_stringIcNS_11char_traitsIcEENS_9allocatorIcEEEES7_EENS_22__unordered_map_hasherIS7_S8_NS_4hashIS7_EENS_8equal_toIS7_EELb1EEENS_21__unordered_map_equalIS7_S8_SD_SB_Lb1EEENS5_IS8_EEE12__node_allocB8ue170006Ev, symObjAddr: 0x6E30, symBinAddr: 0x100009050, symSize: 0x28 }
  - { offsetInCU: 0x233B6, offset: 0x233B6, size: 0x8, addend: 0x0, symName: __ZNSt3__116__hash_node_baseIPNS_11__hash_nodeINS_17__hash_value_typeINS_12basic_stringIcNS_11char_traitsIcEENS_9allocatorIcEEEES8_EEPvEEE8__upcastB8ue170006Ev, symObjAddr: 0x6E58, symBinAddr: 0x100009078, symSize: 0x24 }
  - { offsetInCU: 0x233DC, offset: 0x233DC, size: 0x8, addend: 0x0, symName: __ZNSt3__116allocator_traitsINS_9allocatorINS_11__hash_nodeINS_17__hash_value_typeINS_12basic_stringIcNS_11char_traitsIcEENS1_IcEEEES8_EEPvEEEEE7destroyB8ue170006INS_4pairIKS8_S8_EEvvEEvRSC_PT_, symObjAddr: 0x6E7C, symBinAddr: 0x10000909C, symSize: 0x28 }
  - { offsetInCU: 0x23417, offset: 0x23417, size: 0x8, addend: 0x0, symName: __ZNSt3__122__hash_key_value_typesINS_17__hash_value_typeINS_12basic_stringIcNS_11char_traitsIcEENS_9allocatorIcEEEES7_EEE9__get_ptrB8ue170006ERS8_, symObjAddr: 0x6EA4, symBinAddr: 0x1000090C4, symSize: 0x24 }
  - { offsetInCU: 0x2343A, offset: 0x2343A, size: 0x8, addend: 0x0, symName: __ZNSt3__116allocator_traitsINS_9allocatorINS_11__hash_nodeINS_17__hash_value_typeINS_12basic_stringIcNS_11char_traitsIcEENS1_IcEEEES8_EEPvEEEEE10deallocateB8ue170006ERSC_PSB_m, symObjAddr: 0x6EC8, symBinAddr: 0x1000090E8, symSize: 0x34 }
  - { offsetInCU: 0x2347C, offset: 0x2347C, size: 0x8, addend: 0x0, symName: __ZNSt3__117__compressed_pairINS_16__hash_node_baseIPNS_11__hash_nodeINS_17__hash_value_typeINS_12basic_stringIcNS_11char_traitsIcEENS_9allocatorIcEEEES9_EEPvEEEENS7_ISC_EEE6secondB8ue170006Ev, symObjAddr: 0x6EFC, symBinAddr: 0x10000911C, symSize: 0x24 }
  - { offsetInCU: 0x234A2, offset: 0x234A2, size: 0x8, addend: 0x0, symName: __ZNSt3__122__compressed_pair_elemINS_9allocatorINS_11__hash_nodeINS_17__hash_value_typeINS_12basic_stringIcNS_11char_traitsIcEENS1_IcEEEES8_EEPvEEEELi1ELb1EE5__getB8ue170006Ev, symObjAddr: 0x6F20, symBinAddr: 0x100009140, symSize: 0x14 }
  - { offsetInCU: 0x234C8, offset: 0x234C8, size: 0x8, addend: 0x0, symName: __ZNSt3__114pointer_traitsIPNS_16__hash_node_baseIPNS_11__hash_nodeINS_17__hash_value_typeINS_12basic_stringIcNS_11char_traitsIcEENS_9allocatorIcEEEES9_EEPvEEEEE10pointer_toB8ue170006ERSE_, symObjAddr: 0x6F34, symBinAddr: 0x100009154, symSize: 0x14 }
  - { offsetInCU: 0x234EB, offset: 0x234EB, size: 0x8, addend: 0x0, symName: __ZNSt3__14pairIKNS_12basic_stringIcNS_11char_traitsIcEENS_9allocatorIcEEEES6_ED1Ev, symObjAddr: 0x6F48, symBinAddr: 0x100009168, symSize: 0x2C }
  - { offsetInCU: 0x23517, offset: 0x23517, size: 0x8, addend: 0x0, symName: __ZNSt3__14pairIKNS_12basic_stringIcNS_11char_traitsIcEENS_9allocatorIcEEEES6_ED2Ev, symObjAddr: 0x6F74, symBinAddr: 0x100009194, symSize: 0x38 }
  - { offsetInCU: 0x23543, offset: 0x23543, size: 0x8, addend: 0x0, symName: __ZNSt3__117__hash_value_typeINS_12basic_stringIcNS_11char_traitsIcEENS_9allocatorIcEEEES6_E11__get_valueB8ue170006Ev, symObjAddr: 0x6FAC, symBinAddr: 0x1000091CC, symSize: 0x24 }
  - { offsetInCU: 0x23569, offset: 0x23569, size: 0x8, addend: 0x0, symName: __ZNSt3__19allocatorINS_11__hash_nodeINS_17__hash_value_typeINS_12basic_stringIcNS_11char_traitsIcEENS0_IcEEEES7_EEPvEEE10deallocateB8ue170006EPSA_m, symObjAddr: 0x7008, symBinAddr: 0x100009228, symSize: 0x40 }
  - { offsetInCU: 0x235AB, offset: 0x235AB, size: 0x8, addend: 0x0, symName: __ZNSt3__122__compressed_pair_elemINS_16__hash_node_baseIPNS_11__hash_nodeINS_17__hash_value_typeINS_12basic_stringIcNS_11char_traitsIcEENS_9allocatorIcEEEES9_EEPvEEEELi0ELb0EE5__getB8ue170006Ev, symObjAddr: 0x7048, symBinAddr: 0x100009268, symSize: 0x14 }
  - { offsetInCU: 0x235D1, offset: 0x235D1, size: 0x8, addend: 0x0, symName: __ZNSt3__110unique_ptrIA_PNS_16__hash_node_baseIPNS_11__hash_nodeINS_17__hash_value_typeINS_12basic_stringIcNS_11char_traitsIcEENS_9allocatorIcEEEES9_EEPvEEEENS_25__bucket_list_deallocatorINS7_ISF_EEEEED2B8ue170006Ev, symObjAddr: 0x705C, symBinAddr: 0x10000927C, symSize: 0x30 }
  - { offsetInCU: 0x235FB, offset: 0x235FB, size: 0x8, addend: 0x0, symName: __ZNSt3__110unique_ptrIA_PNS_16__hash_node_baseIPNS_11__hash_nodeINS_17__hash_value_typeINS_12basic_stringIcNS_11char_traitsIcEENS_9allocatorIcEEEES9_EEPvEEEENS_25__bucket_list_deallocatorINS7_ISF_EEEEE5resetB8ue170006EDn, symObjAddr: 0x708C, symBinAddr: 0x1000092AC, symSize: 0x6C }
  - { offsetInCU: 0x2363C, offset: 0x2363C, size: 0x8, addend: 0x0, symName: __ZNSt3__117__compressed_pairIPPNS_16__hash_node_baseIPNS_11__hash_nodeINS_17__hash_value_typeINS_12basic_stringIcNS_11char_traitsIcEENS_9allocatorIcEEEES9_EEPvEEEENS_25__bucket_list_deallocatorINS7_ISF_EEEEE5firstB8ue170006Ev, symObjAddr: 0x70F8, symBinAddr: 0x100009318, symSize: 0x24 }
  - { offsetInCU: 0x23662, offset: 0x23662, size: 0x8, addend: 0x0, symName: __ZNSt3__117__compressed_pairIPPNS_16__hash_node_baseIPNS_11__hash_nodeINS_17__hash_value_typeINS_12basic_stringIcNS_11char_traitsIcEENS_9allocatorIcEEEES9_EEPvEEEENS_25__bucket_list_deallocatorINS7_ISF_EEEEE6secondB8ue170006Ev, symObjAddr: 0x711C, symBinAddr: 0x10000933C, symSize: 0x28 }
  - { offsetInCU: 0x23688, offset: 0x23688, size: 0x8, addend: 0x0, symName: __ZNSt3__125__bucket_list_deallocatorINS_9allocatorIPNS_16__hash_node_baseIPNS_11__hash_nodeINS_17__hash_value_typeINS_12basic_stringIcNS_11char_traitsIcEENS1_IcEEEES9_EEPvEEEEEEEclB8ue170006EPSF_, symObjAddr: 0x7144, symBinAddr: 0x100009364, symSize: 0x58 }
  - { offsetInCU: 0x236BD, offset: 0x236BD, size: 0x8, addend: 0x0, symName: __ZNSt3__122__compressed_pair_elemIPPNS_16__hash_node_baseIPNS_11__hash_nodeINS_17__hash_value_typeINS_12basic_stringIcNS_11char_traitsIcEENS_9allocatorIcEEEES9_EEPvEEEELi0ELb0EE5__getB8ue170006Ev, symObjAddr: 0x719C, symBinAddr: 0x1000093BC, symSize: 0x14 }
  - { offsetInCU: 0x236E3, offset: 0x236E3, size: 0x8, addend: 0x0, symName: __ZNSt3__122__compressed_pair_elemINS_25__bucket_list_deallocatorINS_9allocatorIPNS_16__hash_node_baseIPNS_11__hash_nodeINS_17__hash_value_typeINS_12basic_stringIcNS_11char_traitsIcEENS2_IcEEEESA_EEPvEEEEEEEELi1ELb0EE5__getB8ue170006Ev, symObjAddr: 0x71B0, symBinAddr: 0x1000093D0, symSize: 0x14 }
  - { offsetInCU: 0x23709, offset: 0x23709, size: 0x8, addend: 0x0, symName: __ZNSt3__116allocator_traitsINS_9allocatorIPNS_16__hash_node_baseIPNS_11__hash_nodeINS_17__hash_value_typeINS_12basic_stringIcNS_11char_traitsIcEENS1_IcEEEES9_EEPvEEEEEEE10deallocateB8ue170006ERSG_PSF_m, symObjAddr: 0x71C4, symBinAddr: 0x1000093E4, symSize: 0x34 }
  - { offsetInCU: 0x2374B, offset: 0x2374B, size: 0x8, addend: 0x0, symName: __ZNSt3__125__bucket_list_deallocatorINS_9allocatorIPNS_16__hash_node_baseIPNS_11__hash_nodeINS_17__hash_value_typeINS_12basic_stringIcNS_11char_traitsIcEENS1_IcEEEES9_EEPvEEEEEEE7__allocB8ue170006Ev, symObjAddr: 0x71F8, symBinAddr: 0x100009418, symSize: 0x24 }
  - { offsetInCU: 0x23771, offset: 0x23771, size: 0x8, addend: 0x0, symName: __ZNSt3__125__bucket_list_deallocatorINS_9allocatorIPNS_16__hash_node_baseIPNS_11__hash_nodeINS_17__hash_value_typeINS_12basic_stringIcNS_11char_traitsIcEENS1_IcEEEES9_EEPvEEEEEEE4sizeB8ue170006Ev, symObjAddr: 0x721C, symBinAddr: 0x10000943C, symSize: 0x24 }
  - { offsetInCU: 0x23797, offset: 0x23797, size: 0x8, addend: 0x0, symName: __ZNSt3__19allocatorIPNS_16__hash_node_baseIPNS_11__hash_nodeINS_17__hash_value_typeINS_12basic_stringIcNS_11char_traitsIcEENS0_IcEEEES8_EEPvEEEEE10deallocateB8ue170006EPSE_m, symObjAddr: 0x7240, symBinAddr: 0x100009460, symSize: 0x40 }
  - { offsetInCU: 0x237D9, offset: 0x237D9, size: 0x8, addend: 0x0, symName: __ZNSt3__117__compressed_pairImNS_9allocatorIPNS_16__hash_node_baseIPNS_11__hash_nodeINS_17__hash_value_typeINS_12basic_stringIcNS_11char_traitsIcEENS1_IcEEEES9_EEPvEEEEEEE6secondB8ue170006Ev, symObjAddr: 0x7280, symBinAddr: 0x1000094A0, symSize: 0x24 }
  - { offsetInCU: 0x237FF, offset: 0x237FF, size: 0x8, addend: 0x0, symName: __ZNSt3__122__compressed_pair_elemINS_9allocatorIPNS_16__hash_node_baseIPNS_11__hash_nodeINS_17__hash_value_typeINS_12basic_stringIcNS_11char_traitsIcEENS1_IcEEEES9_EEPvEEEEEELi1ELb1EE5__getB8ue170006Ev, symObjAddr: 0x72A4, symBinAddr: 0x1000094C4, symSize: 0x14 }
  - { offsetInCU: 0x23825, offset: 0x23825, size: 0x8, addend: 0x0, symName: __ZNSt3__117__compressed_pairImNS_9allocatorIPNS_16__hash_node_baseIPNS_11__hash_nodeINS_17__hash_value_typeINS_12basic_stringIcNS_11char_traitsIcEENS1_IcEEEES9_EEPvEEEEEEE5firstB8ue170006Ev, symObjAddr: 0x72B8, symBinAddr: 0x1000094D8, symSize: 0x24 }
  - { offsetInCU: 0x2384B, offset: 0x2384B, size: 0x8, addend: 0x0, symName: __ZNSt3__111char_traitsIcE6lengthB8ue170006EPKc, symObjAddr: 0x74C8, symBinAddr: 0x1000096E8, symSize: 0x34 }
  - { offsetInCU: 0x2388C, offset: 0x2388C, size: 0x8, addend: 0x0, symName: __ZNKSt3__113basic_ostreamIcNS_11char_traitsIcEEE6sentrycvbB8ue170006Ev, symObjAddr: 0x74FC, symBinAddr: 0x10000971C, symSize: 0x1C }
  - { offsetInCU: 0x238B2, offset: 0x238B2, size: 0x8, addend: 0x0, symName: __ZNSt3__119ostreambuf_iteratorIcNS_11char_traitsIcEEEC1B8ue170006ERNS_13basic_ostreamIcS2_EE, symObjAddr: 0x7758, symBinAddr: 0x100009978, symSize: 0x34 }
  - { offsetInCU: 0x238EA, offset: 0x238EA, size: 0x8, addend: 0x0, symName: __ZNKSt3__18ios_base5flagsB8ue170006Ev, symObjAddr: 0x778C, symBinAddr: 0x1000099AC, symSize: 0x18 }
  - { offsetInCU: 0x23912, offset: 0x23912, size: 0x8, addend: 0x0, symName: __ZNKSt3__19basic_iosIcNS_11char_traitsIcEEE4fillB8ue170006Ev, symObjAddr: 0x77A4, symBinAddr: 0x1000099C4, symSize: 0x64 }
  - { offsetInCU: 0x2393A, offset: 0x2393A, size: 0x8, addend: 0x0, symName: __ZNKSt3__119ostreambuf_iteratorIcNS_11char_traitsIcEEE6failedB8ue170006Ev, symObjAddr: 0x7808, symBinAddr: 0x100009A28, symSize: 0x24 }
  - { offsetInCU: 0x23960, offset: 0x23960, size: 0x8, addend: 0x0, symName: __ZNSt3__19basic_iosIcNS_11char_traitsIcEEE8setstateB8ue170006Ej, symObjAddr: 0x782C, symBinAddr: 0x100009A4C, symSize: 0x2C }
  - { offsetInCU: 0x23995, offset: 0x23995, size: 0x8, addend: 0x0, symName: __ZNKSt3__18ios_base5widthB8ue170006Ev, symObjAddr: 0x7858, symBinAddr: 0x100009A78, symSize: 0x18 }
  - { offsetInCU: 0x239BD, offset: 0x239BD, size: 0x8, addend: 0x0, symName: __ZNSt3__115basic_streambufIcNS_11char_traitsIcEEE5sputnB8ue170006EPKcl, symObjAddr: 0x7870, symBinAddr: 0x100009A90, symSize: 0x3C }
  - { offsetInCU: 0x239FF, offset: 0x239FF, size: 0x8, addend: 0x0, symName: __ZNSt3__112basic_stringIcNS_11char_traitsIcEENS_9allocatorIcEEEC1B8ue170006Emc, symObjAddr: 0x78AC, symBinAddr: 0x100009ACC, symSize: 0x3C }
  - { offsetInCU: 0x23A47, offset: 0x23A47, size: 0x8, addend: 0x0, symName: __ZNSt3__112basic_stringIcNS_11char_traitsIcEENS_9allocatorIcEEE4dataB8ue170006Ev, symObjAddr: 0x78E8, symBinAddr: 0x100009B08, symSize: 0x28 }
  - { offsetInCU: 0x23A6D, offset: 0x23A6D, size: 0x8, addend: 0x0, symName: __ZNSt3__18ios_base5widthB8ue170006El, symObjAddr: 0x7910, symBinAddr: 0x100009B30, symSize: 0x2C }
  - { offsetInCU: 0x23AB3, offset: 0x23AB3, size: 0x8, addend: 0x0, symName: __ZNSt3__112basic_stringIcNS_11char_traitsIcEENS_9allocatorIcEEEC2B8ue170006Emc, symObjAddr: 0x793C, symBinAddr: 0x100009B5C, symSize: 0x4C }
  - { offsetInCU: 0x23AFB, offset: 0x23AFB, size: 0x8, addend: 0x0, symName: __ZNSt3__112basic_stringIcNS_11char_traitsIcEENS_9allocatorIcEEE13__get_pointerB8ue170006Ev, symObjAddr: 0x799C, symBinAddr: 0x100009BBC, symSize: 0x54 }
  - { offsetInCU: 0x23B21, offset: 0x23B21, size: 0x8, addend: 0x0, symName: __ZNSt3__119ostreambuf_iteratorIcNS_11char_traitsIcEEEC2B8ue170006ERNS_13basic_ostreamIcS2_EE, symObjAddr: 0x79F0, symBinAddr: 0x100009C10, symSize: 0x54 }
  - { offsetInCU: 0x23B59, offset: 0x23B59, size: 0x8, addend: 0x0, symName: __ZNKSt3__19basic_iosIcNS_11char_traitsIcEEE5rdbufB8ue170006Ev, symObjAddr: 0x7A44, symBinAddr: 0x100009C64, symSize: 0x24 }
  - { offsetInCU: 0x23B81, offset: 0x23B81, size: 0x8, addend: 0x0, symName: __ZNKSt3__18ios_base5rdbufB8ue170006Ev, symObjAddr: 0x7A68, symBinAddr: 0x100009C88, symSize: 0x18 }
  - { offsetInCU: 0x23BA7, offset: 0x23BA7, size: 0x8, addend: 0x0, symName: __ZNSt3__111char_traitsIcE11eq_int_typeB8ue170006Eii, symObjAddr: 0x7A80, symBinAddr: 0x100009CA0, symSize: 0x28 }
  - { offsetInCU: 0x23BDA, offset: 0x23BDA, size: 0x8, addend: 0x0, symName: __ZNSt3__111char_traitsIcE3eofB8ue170006Ev, symObjAddr: 0x7AA8, symBinAddr: 0x100009CC8, symSize: 0x8 }
  - { offsetInCU: 0x23BEE, offset: 0x23BEE, size: 0x8, addend: 0x0, symName: __ZNKSt3__19basic_iosIcNS_11char_traitsIcEEE5widenB8ue170006Ec, symObjAddr: 0x7AB0, symBinAddr: 0x100009CD0, symSize: 0x84 }
  - { offsetInCU: 0x23C52, offset: 0x23C52, size: 0x8, addend: 0x0, symName: __ZNKSt3__15ctypeIcE5widenB8ue170006Ec, symObjAddr: 0x7B60, symBinAddr: 0x100009D80, symSize: 0x38 }
  - { offsetInCU: 0x23C87, offset: 0x23C87, size: 0x8, addend: 0x0, symName: __ZNSt3__18ios_base8setstateB8ue170006Ej, symObjAddr: 0x7B98, symBinAddr: 0x100009DB8, symSize: 0x34 }
  - { offsetInCU: 0x23CBE, offset: 0x23CBE, size: 0x8, addend: 0x0, symName: __ZNSt3__112basic_stringIcNS_11char_traitsIcEENS_9allocatorIcEEEC2B8ue170006ILi0EEEPKc, symObjAddr: 0x7BF0, symBinAddr: 0x100009E10, symSize: 0x58 }
  - { offsetInCU: 0x23CFD, offset: 0x23CFD, size: 0x8, addend: 0x0, symName: __ZNSt3__110lock_guardINS_5mutexEEC2B8ue170006ERS1_, symObjAddr: 0x7C48, symBinAddr: 0x100009E68, symSize: 0x3C }
  - { offsetInCU: 0x23D35, offset: 0x23D35, size: 0x8, addend: 0x0, symName: __ZNSt3__110lock_guardINS_5mutexEED2B8ue170006Ev, symObjAddr: 0x7C84, symBinAddr: 0x100009EA4, symSize: 0x30 }
  - { offsetInCU: 0x23D5F, offset: 0x23D5F, size: 0x8, addend: 0x0, symName: __ZNSt3__19basic_iosIcNS_11char_traitsIcEEEC2B8ue170006Ev, symObjAddr: 0x7CB4, symBinAddr: 0x100009ED4, symSize: 0x44 }
  - { offsetInCU: 0x23D89, offset: 0x23D89, size: 0x8, addend: 0x0, symName: __ZNSt3__113basic_istreamIcNS_11char_traitsIcEEEC2B8ue170006EPNS_15basic_streambufIcS2_EE, symObjAddr: 0x7CF8, symBinAddr: 0x100009F18, symSize: 0x64 }
  - { offsetInCU: 0x23DCE, offset: 0x23DCE, size: 0x8, addend: 0x0, symName: __ZNSt3__18ios_baseC2B8ue170006Ev, symObjAddr: 0x7D5C, symBinAddr: 0x100009F7C, symSize: 0x24 }
  - { offsetInCU: 0x23DF8, offset: 0x23DF8, size: 0x8, addend: 0x0, symName: __ZNSt3__19basic_iosIcNS_11char_traitsIcEEE4initB8ue170006EPNS_15basic_streambufIcS2_EE, symObjAddr: 0x7D80, symBinAddr: 0x100009FA0, symSize: 0x44 }
  - { offsetInCU: 0x23E4D, offset: 0x23E4D, size: 0x8, addend: 0x0, symName: __ZNKSt3__113basic_istreamIcNS_11char_traitsIcEEE6sentrycvbB8ue170006Ev, symObjAddr: 0x7FFC, symBinAddr: 0x10000A21C, symSize: 0x1C }
  - { offsetInCU: 0x23E73, offset: 0x23E73, size: 0x8, addend: 0x0, symName: __ZNSt3__112basic_stringIcNS_11char_traitsIcEENS_9allocatorIcEEE5clearB8ue170006Ev, symObjAddr: 0x8018, symBinAddr: 0x10000A238, symSize: 0x78 }
  - { offsetInCU: 0x23E9B, offset: 0x23E9B, size: 0x8, addend: 0x0, symName: __ZNSt3__115basic_streambufIcNS_11char_traitsIcEEE6sbumpcB8ue170006Ev, symObjAddr: 0x8090, symBinAddr: 0x10000A2B0, symSize: 0x78 }
  - { offsetInCU: 0x23EC1, offset: 0x23EC1, size: 0x8, addend: 0x0, symName: __ZNSt3__111char_traitsIcE12to_char_typeB8ue170006Ei, symObjAddr: 0x8108, symBinAddr: 0x10000A328, symSize: 0x18 }
  - { offsetInCU: 0x23EE4, offset: 0x23EE4, size: 0x8, addend: 0x0, symName: __ZNSt3__111char_traitsIcE2eqEcc, symObjAddr: 0x8120, symBinAddr: 0x10000A340, symSize: 0x28 }
  - { offsetInCU: 0x23F15, offset: 0x23F15, size: 0x8, addend: 0x0, symName: __ZNKSt3__112basic_stringIcNS_11char_traitsIcEENS_9allocatorIcEEE8max_sizeB8ue170006Ev, symObjAddr: 0x8148, symBinAddr: 0x10000A368, symSize: 0xAC }
  - { offsetInCU: 0x23F67, offset: 0x23F67, size: 0x8, addend: 0x0, symName: __ZNSt3__18ios_base18__setstate_nothrowB8ue170006Ej, symObjAddr: 0x81F4, symBinAddr: 0x10000A414, symSize: 0x64 }
  - { offsetInCU: 0x23F9C, offset: 0x23F9C, size: 0x8, addend: 0x0, symName: __ZNKSt3__19basic_iosIcNS_11char_traitsIcEEE10exceptionsB8ue170006Ev, symObjAddr: 0x8258, symBinAddr: 0x10000A478, symSize: 0x24 }
  - { offsetInCU: 0x23FC2, offset: 0x23FC2, size: 0x8, addend: 0x0, symName: __ZNSt3__112basic_stringIcNS_11char_traitsIcEENS_9allocatorIcEEE15__set_long_sizeB8ue170006Em, symObjAddr: 0x827C, symBinAddr: 0x10000A49C, symSize: 0x38 }
  - { offsetInCU: 0x23FF7, offset: 0x23FF7, size: 0x8, addend: 0x0, symName: __ZNSt3__111char_traitsIcE11to_int_typeB8ue170006Ec, symObjAddr: 0x82B4, symBinAddr: 0x10000A4D4, symSize: 0x14 }
  - { offsetInCU: 0x24025, offset: 0x24025, size: 0x8, addend: 0x0, symName: __ZNSt3__116allocator_traitsINS_9allocatorIcEEE8max_sizeB8ue170006IS2_vEEmRKS2_, symObjAddr: 0x82C8, symBinAddr: 0x10000A4E8, symSize: 0x24 }
  - { offsetInCU: 0x24053, offset: 0x24053, size: 0x8, addend: 0x0, symName: __ZNKSt3__112basic_stringIcNS_11char_traitsIcEENS_9allocatorIcEEE7__allocB8ue170006Ev, symObjAddr: 0x82EC, symBinAddr: 0x10000A50C, symSize: 0x24 }
  - { offsetInCU: 0x24079, offset: 0x24079, size: 0x8, addend: 0x0, symName: __ZNSt3__114numeric_limitsImE3maxB8ue170006Ev, symObjAddr: 0x8310, symBinAddr: 0x10000A530, symSize: 0x14 }
  - { offsetInCU: 0x2408D, offset: 0x2408D, size: 0x8, addend: 0x0, symName: __ZNKSt3__19allocatorIcE8max_sizeB8ue170006Ev, symObjAddr: 0x8324, symBinAddr: 0x10000A544, symSize: 0x14 }
  - { offsetInCU: 0x240B3, offset: 0x240B3, size: 0x8, addend: 0x0, symName: __ZNKSt3__117__compressed_pairINS_12basic_stringIcNS_11char_traitsIcEENS_9allocatorIcEEE5__repES5_E6secondB8ue170006Ev, symObjAddr: 0x8338, symBinAddr: 0x10000A558, symSize: 0x24 }
  - { offsetInCU: 0x240D9, offset: 0x240D9, size: 0x8, addend: 0x0, symName: __ZNKSt3__122__compressed_pair_elemINS_9allocatorIcEELi1ELb1EE5__getB8ue170006Ev, symObjAddr: 0x835C, symBinAddr: 0x10000A57C, symSize: 0x14 }
  - { offsetInCU: 0x240FF, offset: 0x240FF, size: 0x8, addend: 0x0, symName: __ZNSt3__123__libcpp_numeric_limitsImLb1EE3maxB8ue170006Ev, symObjAddr: 0x8370, symBinAddr: 0x10000A590, symSize: 0x8 }
  - { offsetInCU: 0x24113, offset: 0x24113, size: 0x8, addend: 0x0, symName: __ZNKSt3__18ios_base10exceptionsB8ue170006Ev, symObjAddr: 0x8378, symBinAddr: 0x10000A598, symSize: 0x18 }
  - { offsetInCU: 0x2413B, offset: 0x2413B, size: 0x8, addend: 0x0, symName: __ZNKSt3__19basic_iosIcNS_11char_traitsIcEEE4failB8ue170006Ev, symObjAddr: 0x8390, symBinAddr: 0x10000A5B0, symSize: 0x28 }
  - { offsetInCU: 0x24161, offset: 0x24161, size: 0x8, addend: 0x0, symName: __ZNKSt3__18ios_base4failB8ue170006Ev, symObjAddr: 0x83B8, symBinAddr: 0x10000A5D8, symSize: 0x28 }
  - { offsetInCU: 0x24189, offset: 0x24189, size: 0x8, addend: 0x0, symName: __ZNSt3__115basic_stringbufIcNS_11char_traitsIcEENS_9allocatorIcEEEC1B8ue170006ERKNS_12basic_stringIcS2_S4_EEj, symObjAddr: 0x83E0, symBinAddr: 0x10000A600, symSize: 0x3C }
  - { offsetInCU: 0x241D1, offset: 0x241D1, size: 0x8, addend: 0x0, symName: __ZNSt3__115basic_stringbufIcNS_11char_traitsIcEENS_9allocatorIcEEEC2B8ue170006ERKNS_12basic_stringIcS2_S4_EEj, symObjAddr: 0x841C, symBinAddr: 0x10000A63C, symSize: 0xB4 }
  - { offsetInCU: 0x24219, offset: 0x24219, size: 0x8, addend: 0x0, symName: __ZNKSt3__112basic_stringIcNS_11char_traitsIcEENS_9allocatorIcEEE13get_allocatorB8ue170006Ev, symObjAddr: 0x84D0, symBinAddr: 0x10000A6F0, symSize: 0x24 }
  - { offsetInCU: 0x2423F, offset: 0x2423F, size: 0x8, addend: 0x0, symName: __ZNSt3__112basic_stringIcNS_11char_traitsIcEENS_9allocatorIcEEEC1B8ue170006ERKS4_, symObjAddr: 0x84F4, symBinAddr: 0x10000A714, symSize: 0x34 }
  - { offsetInCU: 0x24278, offset: 0x24278, size: 0x8, addend: 0x0, symName: __ZNSt3__112basic_stringIcNS_11char_traitsIcEENS_9allocatorIcEEEC2B8ue170006ERKS4_, symObjAddr: 0x8528, symBinAddr: 0x10000A748, symSize: 0x48 }
  - { offsetInCU: 0x242B1, offset: 0x242B1, size: 0x8, addend: 0x0, symName: __ZNSt3__117__compressed_pairINS_12basic_stringIcNS_11char_traitsIcEENS_9allocatorIcEEE5__repES5_EC1B8ue170006INS_18__default_init_tagERKS5_EEOT_OT0_, symObjAddr: 0x8570, symBinAddr: 0x10000A790, symSize: 0x3C }
  - { offsetInCU: 0x24309, offset: 0x24309, size: 0x8, addend: 0x0, symName: __ZNSt3__117__compressed_pairINS_12basic_stringIcNS_11char_traitsIcEENS_9allocatorIcEEE5__repES5_EC2B8ue170006INS_18__default_init_tagERKS5_EEOT_OT0_, symObjAddr: 0x85AC, symBinAddr: 0x10000A7CC, symSize: 0x40 }
  - { offsetInCU: 0x24361, offset: 0x24361, size: 0x8, addend: 0x0, symName: __ZNSt3__122__compressed_pair_elemINS_9allocatorIcEELi1ELb1EEC2B8ue170006IRKS2_vEEOT_, symObjAddr: 0x85EC, symBinAddr: 0x10000A80C, symSize: 0x18 }
  - { offsetInCU: 0x243A3, offset: 0x243A3, size: 0x8, addend: 0x0, symName: __ZNSt3__114numeric_limitsIlE3maxB8ue170006Ev, symObjAddr: 0x8604, symBinAddr: 0x10000A824, symSize: 0x14 }
  - { offsetInCU: 0x243B7, offset: 0x243B7, size: 0x8, addend: 0x0, symName: __ZNSt3__115basic_streambufIcNS_11char_traitsIcEEE5sgetcB8ue170006Ev, symObjAddr: 0x8618, symBinAddr: 0x10000A838, symSize: 0x70 }
  - { offsetInCU: 0x243DD, offset: 0x243DD, size: 0x8, addend: 0x0, symName: __ZNKSt3__15ctypeIcE2isB8ue170006Ejc, symObjAddr: 0x8688, symBinAddr: 0x10000A8A8, symSize: 0x7C }
  - { offsetInCU: 0x24421, offset: 0x24421, size: 0x8, addend: 0x0, symName: __ZNSt3__123__libcpp_numeric_limitsIlLb1EE3maxB8ue170006Ev, symObjAddr: 0x8704, symBinAddr: 0x10000A924, symSize: 0x8 }
  - { offsetInCU: 0x24434, offset: 0x24434, size: 0x8, addend: 0x0, symName: __Z7isasciii, symObjAddr: 0x870C, symBinAddr: 0x10000A92C, symSize: 0x24 }
  - { offsetInCU: 0x24461, offset: 0x24461, size: 0x8, addend: 0x0, symName: __ZNSt3__111char_traitsIcE7compareB8ue170006EPKcS3_m, symObjAddr: 0x8730, symBinAddr: 0x10000A950, symSize: 0x34 }
  - { offsetInCU: 0x244A0, offset: 0x244A0, size: 0x8, addend: 0x0, symName: __ZNSt3__113basic_ostreamIcNS_11char_traitsIcEEEC2B8ue170006EPNS_15basic_streambufIcS2_EE, symObjAddr: 0x8764, symBinAddr: 0x10000A984, symSize: 0x60 }
  - { offsetInCU: 0x244E5, offset: 0x244E5, size: 0x8, addend: 0x0, symName: __ZNKSt3__113basic_filebufIcNS_11char_traitsIcEEE7is_openEv, symObjAddr: 0x87C4, symBinAddr: 0x10000A9E4, symSize: 0x24 }
  - { offsetInCU: 0x24521, offset: 0x24521, size: 0x8, addend: 0x0, symName: __ZNSt3__112__hash_tableINS_17__hash_value_typeIiP6ssl_stEENS_22__unordered_map_hasherIiS4_NS_4hashIiEENS_8equal_toIiEELb1EEENS_21__unordered_map_equalIiS4_S9_S7_Lb1EEENS_9allocatorIS4_EEE25__emplace_unique_key_argsIiJRKNS_21piecewise_construct_tENS_5tupleIJRKiEEENSK_IJEEEEEENS_4pairINS_15__hash_iteratorIPNS_11__hash_nodeIS4_PvEEEEbEERKT_DpOT0_, symObjAddr: 0x87E8, symBinAddr: 0x10000AA08, symSize: 0x4E8 }
  - { offsetInCU: 0x2462B, offset: 0x2462B, size: 0x8, addend: 0x0, symName: __ZNKSt3__115__hash_iteratorIPNS_11__hash_nodeINS_17__hash_value_typeIiP6ssl_stEEPvEEEptB8ue170006Ev, symObjAddr: 0x8D00, symBinAddr: 0x10000AF20, symSize: 0x30 }
  - { offsetInCU: 0x24651, offset: 0x24651, size: 0x8, addend: 0x0, symName: __ZNSt3__112__hash_tableINS_17__hash_value_typeIiP6ssl_stEENS_22__unordered_map_hasherIiS4_NS_4hashIiEENS_8equal_toIiEELb1EEENS_21__unordered_map_equalIiS4_S9_S7_Lb1EEENS_9allocatorIS4_EEE13hash_functionB8ue170006Ev, symObjAddr: 0x8D30, symBinAddr: 0x10000AF50, symSize: 0x28 }
  - { offsetInCU: 0x24677, offset: 0x24677, size: 0x8, addend: 0x0, symName: __ZNKSt3__122__unordered_map_hasherIiNS_17__hash_value_typeIiP6ssl_stEENS_4hashIiEENS_8equal_toIiEELb1EEclB8ue170006ERKi, symObjAddr: 0x8D58, symBinAddr: 0x10000AF78, symSize: 0x30 }
  - { offsetInCU: 0x246AC, offset: 0x246AC, size: 0x8, addend: 0x0, symName: __ZNKSt3__112__hash_tableINS_17__hash_value_typeIiP6ssl_stEENS_22__unordered_map_hasherIiS4_NS_4hashIiEENS_8equal_toIiEELb1EEENS_21__unordered_map_equalIiS4_S9_S7_Lb1EEENS_9allocatorIS4_EEE12bucket_countB8ue170006Ev, symObjAddr: 0x8D88, symBinAddr: 0x10000AFA8, symSize: 0x28 }
  - { offsetInCU: 0x246D2, offset: 0x246D2, size: 0x8, addend: 0x0, symName: __ZNKSt3__110unique_ptrIA_PNS_16__hash_node_baseIPNS_11__hash_nodeINS_17__hash_value_typeIiP6ssl_stEEPvEEEENS_25__bucket_list_deallocatorINS_9allocatorISB_EEEEEixB8ue170006Em, symObjAddr: 0x8E48, symBinAddr: 0x10000B068, symSize: 0x34 }
  - { offsetInCU: 0x24707, offset: 0x24707, size: 0x8, addend: 0x0, symName: __ZNKSt3__116__hash_node_baseIPNS_11__hash_nodeINS_17__hash_value_typeIiP6ssl_stEEPvEEE6__hashB8ue170006Ev, symObjAddr: 0x8E7C, symBinAddr: 0x10000B09C, symSize: 0x18 }
  - { offsetInCU: 0x2472D, offset: 0x2472D, size: 0x8, addend: 0x0, symName: __ZNSt3__112__hash_tableINS_17__hash_value_typeIiP6ssl_stEENS_22__unordered_map_hasherIiS4_NS_4hashIiEENS_8equal_toIiEELb1EEENS_21__unordered_map_equalIiS4_S9_S7_Lb1EEENS_9allocatorIS4_EEE6key_eqB8ue170006Ev, symObjAddr: 0x8E94, symBinAddr: 0x10000B0B4, symSize: 0x28 }
  - { offsetInCU: 0x24753, offset: 0x24753, size: 0x8, addend: 0x0, symName: __ZNKSt3__121__unordered_map_equalIiNS_17__hash_value_typeIiP6ssl_stEENS_8equal_toIiEENS_4hashIiEELb1EEclB8ue170006ERKS4_RKi, symObjAddr: 0x8EBC, symBinAddr: 0x10000B0DC, symSize: 0x48 }
  - { offsetInCU: 0x24797, offset: 0x24797, size: 0x8, addend: 0x0, symName: __ZNSt3__112__hash_tableINS_17__hash_value_typeIiP6ssl_stEENS_22__unordered_map_hasherIiS4_NS_4hashIiEENS_8equal_toIiEELb1EEENS_21__unordered_map_equalIiS4_S9_S7_Lb1EEENS_9allocatorIS4_EEE21__construct_node_hashIRKNS_21piecewise_construct_tEJNS_5tupleIJRKiEEENSK_IJEEEEEENS_10unique_ptrINS_11__hash_nodeIS4_PvEENS_22__hash_node_destructorINSD_ISS_EEEEEEmOT_DpOT0_, symObjAddr: 0x8F04, symBinAddr: 0x10000B124, symSize: 0x150 }
  - { offsetInCU: 0x24833, offset: 0x24833, size: 0x8, addend: 0x0, symName: __ZNSt3__112__hash_tableINS_17__hash_value_typeIiP6ssl_stEENS_22__unordered_map_hasherIiS4_NS_4hashIiEENS_8equal_toIiEELb1EEENS_21__unordered_map_equalIiS4_S9_S7_Lb1EEENS_9allocatorIS4_EEE4sizeB8ue170006Ev, symObjAddr: 0x9054, symBinAddr: 0x10000B274, symSize: 0x28 }
  - { offsetInCU: 0x24859, offset: 0x24859, size: 0x8, addend: 0x0, symName: __ZNSt3__112__hash_tableINS_17__hash_value_typeIiP6ssl_stEENS_22__unordered_map_hasherIiS4_NS_4hashIiEENS_8equal_toIiEELb1EEENS_21__unordered_map_equalIiS4_S9_S7_Lb1EEENS_9allocatorIS4_EEE15max_load_factorB8ue170006Ev, symObjAddr: 0x907C, symBinAddr: 0x10000B29C, symSize: 0x28 }
  - { offsetInCU: 0x2487F, offset: 0x2487F, size: 0x8, addend: 0x0, symName: __ZNSt3__112__hash_tableINS_17__hash_value_typeIiP6ssl_stEENS_22__unordered_map_hasherIiS4_NS_4hashIiEENS_8equal_toIiEELb1EEENS_21__unordered_map_equalIiS4_S9_S7_Lb1EEENS_9allocatorIS4_EEE15__rehash_uniqueB8ue170006Em, symObjAddr: 0x90A4, symBinAddr: 0x10000B2C4, symSize: 0x2C }
  - { offsetInCU: 0x248B3, offset: 0x248B3, size: 0x8, addend: 0x0, symName: __Z4ceilB8ue170006f, symObjAddr: 0x914C, symBinAddr: 0x10000B36C, symSize: 0x18 }
  - { offsetInCU: 0x248E2, offset: 0x248E2, size: 0x8, addend: 0x0, symName: __ZNSt3__116__hash_node_baseIPNS_11__hash_nodeINS_17__hash_value_typeIiP6ssl_stEEPvEEE5__ptrB8ue170006Ev, symObjAddr: 0x9164, symBinAddr: 0x10000B384, symSize: 0x24 }
  - { offsetInCU: 0x24908, offset: 0x24908, size: 0x8, addend: 0x0, symName: __ZNKSt3__110unique_ptrINS_11__hash_nodeINS_17__hash_value_typeIiP6ssl_stEEPvEENS_22__hash_node_destructorINS_9allocatorIS7_EEEEEptB8ue170006Ev, symObjAddr: 0x9188, symBinAddr: 0x10000B3A8, symSize: 0x28 }
  - { offsetInCU: 0x2492E, offset: 0x2492E, size: 0x8, addend: 0x0, symName: __ZNKSt3__110unique_ptrINS_11__hash_nodeINS_17__hash_value_typeIiP6ssl_stEEPvEENS_22__hash_node_destructorINS_9allocatorIS7_EEEEE3getB8ue170006Ev, symObjAddr: 0x91B0, symBinAddr: 0x10000B3D0, symSize: 0x28 }
  - { offsetInCU: 0x24954, offset: 0x24954, size: 0x8, addend: 0x0, symName: __ZNSt3__110unique_ptrINS_11__hash_nodeINS_17__hash_value_typeIiP6ssl_stEEPvEENS_22__hash_node_destructorINS_9allocatorIS7_EEEEE7releaseB8ue170006Ev, symObjAddr: 0x91D8, symBinAddr: 0x10000B3F8, symSize: 0x44 }
  - { offsetInCU: 0x24989, offset: 0x24989, size: 0x8, addend: 0x0, symName: __ZNSt3__110unique_ptrINS_11__hash_nodeINS_17__hash_value_typeIiP6ssl_stEEPvEENS_22__hash_node_destructorINS_9allocatorIS7_EEEEED1B8ue170006Ev, symObjAddr: 0x921C, symBinAddr: 0x10000B43C, symSize: 0x2C }
  - { offsetInCU: 0x249B3, offset: 0x249B3, size: 0x8, addend: 0x0, symName: __ZNSt3__115__hash_iteratorIPNS_11__hash_nodeINS_17__hash_value_typeIiP6ssl_stEEPvEEEC1B8ue170006EPNS_16__hash_node_baseIS8_EE, symObjAddr: 0x9248, symBinAddr: 0x10000B468, symSize: 0x34 }
  - { offsetInCU: 0x249F1, offset: 0x249F1, size: 0x8, addend: 0x0, symName: __ZNSt3__14pairINS_15__hash_iteratorIPNS_11__hash_nodeINS_17__hash_value_typeIiP6ssl_stEEPvEEEEbEC1B8ue170006ISA_RbLS7_0EEEOT_OT0_, symObjAddr: 0x927C, symBinAddr: 0x10000B49C, symSize: 0x3C }
  - { offsetInCU: 0x24A4F, offset: 0x24A4F, size: 0x8, addend: 0x0, symName: __ZNSt3__117__compressed_pairImNS_22__unordered_map_hasherIiNS_17__hash_value_typeIiP6ssl_stEENS_4hashIiEENS_8equal_toIiEELb1EEEE6secondB8ue170006Ev, symObjAddr: 0x92B8, symBinAddr: 0x10000B4D8, symSize: 0x24 }
  - { offsetInCU: 0x24A75, offset: 0x24A75, size: 0x8, addend: 0x0, symName: __ZNSt3__122__compressed_pair_elemINS_22__unordered_map_hasherIiNS_17__hash_value_typeIiP6ssl_stEENS_4hashIiEENS_8equal_toIiEELb1EEELi1ELb1EE5__getB8ue170006Ev, symObjAddr: 0x92DC, symBinAddr: 0x10000B4FC, symSize: 0x14 }
  - { offsetInCU: 0x24A9B, offset: 0x24A9B, size: 0x8, addend: 0x0, symName: __ZNKSt3__14hashIiEclB8ue170006Ei, symObjAddr: 0x92F0, symBinAddr: 0x10000B510, symSize: 0x18 }
  - { offsetInCU: 0x24AD0, offset: 0x24AD0, size: 0x8, addend: 0x0, symName: __ZNKSt3__110unique_ptrIA_PNS_16__hash_node_baseIPNS_11__hash_nodeINS_17__hash_value_typeIiP6ssl_stEEPvEEEENS_25__bucket_list_deallocatorINS_9allocatorISB_EEEEE11get_deleterB8ue170006Ev, symObjAddr: 0x9308, symBinAddr: 0x10000B528, symSize: 0x24 }
  - { offsetInCU: 0x24AF6, offset: 0x24AF6, size: 0x8, addend: 0x0, symName: __ZNKSt3__125__bucket_list_deallocatorINS_9allocatorIPNS_16__hash_node_baseIPNS_11__hash_nodeINS_17__hash_value_typeIiP6ssl_stEEPvEEEEEEE4sizeB8ue170006Ev, symObjAddr: 0x932C, symBinAddr: 0x10000B54C, symSize: 0x28 }
  - { offsetInCU: 0x24B1C, offset: 0x24B1C, size: 0x8, addend: 0x0, symName: __ZNKSt3__117__compressed_pairIPPNS_16__hash_node_baseIPNS_11__hash_nodeINS_17__hash_value_typeIiP6ssl_stEEPvEEEENS_25__bucket_list_deallocatorINS_9allocatorISB_EEEEE6secondB8ue170006Ev, symObjAddr: 0x9354, symBinAddr: 0x10000B574, symSize: 0x28 }
  - { offsetInCU: 0x24B42, offset: 0x24B42, size: 0x8, addend: 0x0, symName: __ZNKSt3__122__compressed_pair_elemINS_25__bucket_list_deallocatorINS_9allocatorIPNS_16__hash_node_baseIPNS_11__hash_nodeINS_17__hash_value_typeIiP6ssl_stEEPvEEEEEEEELi1ELb0EE5__getB8ue170006Ev, symObjAddr: 0x937C, symBinAddr: 0x10000B59C, symSize: 0x14 }
  - { offsetInCU: 0x24B68, offset: 0x24B68, size: 0x8, addend: 0x0, symName: __ZNKSt3__117__compressed_pairImNS_9allocatorIPNS_16__hash_node_baseIPNS_11__hash_nodeINS_17__hash_value_typeIiP6ssl_stEEPvEEEEEEE5firstB8ue170006Ev, symObjAddr: 0x9390, symBinAddr: 0x10000B5B0, symSize: 0x24 }
  - { offsetInCU: 0x24B8E, offset: 0x24B8E, size: 0x8, addend: 0x0, symName: __ZNKSt3__122__compressed_pair_elemImLi0ELb0EE5__getB8ue170006Ev, symObjAddr: 0x93B4, symBinAddr: 0x10000B5D4, symSize: 0x14 }
  - { offsetInCU: 0x24BB4, offset: 0x24BB4, size: 0x8, addend: 0x0, symName: __ZNKSt3__117__compressed_pairIPPNS_16__hash_node_baseIPNS_11__hash_nodeINS_17__hash_value_typeIiP6ssl_stEEPvEEEENS_25__bucket_list_deallocatorINS_9allocatorISB_EEEEE5firstB8ue170006Ev, symObjAddr: 0x93C8, symBinAddr: 0x10000B5E8, symSize: 0x24 }
  - { offsetInCU: 0x24BDA, offset: 0x24BDA, size: 0x8, addend: 0x0, symName: __ZNKSt3__122__compressed_pair_elemIPPNS_16__hash_node_baseIPNS_11__hash_nodeINS_17__hash_value_typeIiP6ssl_stEEPvEEEELi0ELb0EE5__getB8ue170006Ev, symObjAddr: 0x93EC, symBinAddr: 0x10000B60C, symSize: 0x14 }
  - { offsetInCU: 0x24C00, offset: 0x24C00, size: 0x8, addend: 0x0, symName: __ZNSt3__117__compressed_pairIfNS_21__unordered_map_equalIiNS_17__hash_value_typeIiP6ssl_stEENS_8equal_toIiEENS_4hashIiEELb1EEEE6secondB8ue170006Ev, symObjAddr: 0x9400, symBinAddr: 0x10000B620, symSize: 0x24 }
  - { offsetInCU: 0x24C26, offset: 0x24C26, size: 0x8, addend: 0x0, symName: __ZNSt3__122__compressed_pair_elemINS_21__unordered_map_equalIiNS_17__hash_value_typeIiP6ssl_stEENS_8equal_toIiEENS_4hashIiEELb1EEELi1ELb1EE5__getB8ue170006Ev, symObjAddr: 0x9424, symBinAddr: 0x10000B644, symSize: 0x14 }
  - { offsetInCU: 0x24C4C, offset: 0x24C4C, size: 0x8, addend: 0x0, symName: __ZNKSt3__18equal_toIiEclB8ue170006ERKiS3_, symObjAddr: 0x9438, symBinAddr: 0x10000B658, symSize: 0x34 }
  - { offsetInCU: 0x24C90, offset: 0x24C90, size: 0x8, addend: 0x0, symName: __ZNKSt3__117__hash_value_typeIiP6ssl_stE11__get_valueB8ue170006Ev, symObjAddr: 0x946C, symBinAddr: 0x10000B68C, symSize: 0x24 }
  - { offsetInCU: 0x24CB6, offset: 0x24CB6, size: 0x8, addend: 0x0, symName: __ZNSt3__116allocator_traitsINS_9allocatorINS_11__hash_nodeINS_17__hash_value_typeIiP6ssl_stEEPvEEEEE8allocateB8ue170006ERS9_m, symObjAddr: 0x94C8, symBinAddr: 0x10000B6E8, symSize: 0x2C }
  - { offsetInCU: 0x24CE9, offset: 0x24CE9, size: 0x8, addend: 0x0, symName: __ZNSt3__122__hash_node_destructorINS_9allocatorINS_11__hash_nodeINS_17__hash_value_typeIiP6ssl_stEEPvEEEEEC1B8ue170006ERS9_b, symObjAddr: 0x94F4, symBinAddr: 0x10000B714, symSize: 0x48 }
  - { offsetInCU: 0x24D36, offset: 0x24D36, size: 0x8, addend: 0x0, symName: __ZNSt3__110unique_ptrINS_11__hash_nodeINS_17__hash_value_typeIiP6ssl_stEEPvEENS_22__hash_node_destructorINS_9allocatorIS7_EEEEEC1B8ue170006ILb1EvEEPS7_NS_16__dependent_typeINS_27__unique_ptr_deleter_sfinaeISB_EEXT_EE20__good_rval_ref_typeE, symObjAddr: 0x953C, symBinAddr: 0x10000B75C, symSize: 0x3C }
  - { offsetInCU: 0x24D87, offset: 0x24D87, size: 0x8, addend: 0x0, symName: __ZNSt3__116allocator_traitsINS_9allocatorINS_11__hash_nodeINS_17__hash_value_typeIiP6ssl_stEEPvEEEEE9constructB8ue170006INS_4pairIKiS5_EEJRKNS_21piecewise_construct_tENS_5tupleIJRSD_EEENSI_IJEEEEvEEvRS9_PT_DpOT0_, symObjAddr: 0x9578, symBinAddr: 0x10000B798, symSize: 0x44 }
  - { offsetInCU: 0x24E06, offset: 0x24E06, size: 0x8, addend: 0x0, symName: __ZNSt3__110unique_ptrINS_11__hash_nodeINS_17__hash_value_typeIiP6ssl_stEEPvEENS_22__hash_node_destructorINS_9allocatorIS7_EEEEE11get_deleterB8ue170006Ev, symObjAddr: 0x95BC, symBinAddr: 0x10000B7DC, symSize: 0x24 }
  - { offsetInCU: 0x24E2C, offset: 0x24E2C, size: 0x8, addend: 0x0, symName: __ZNSt3__19allocatorINS_11__hash_nodeINS_17__hash_value_typeIiP6ssl_stEEPvEEE8allocateB8ue170006Em, symObjAddr: 0x95E0, symBinAddr: 0x10000B800, symSize: 0x58 }
  - { offsetInCU: 0x24E6A, offset: 0x24E6A, size: 0x8, addend: 0x0, symName: __ZNSt3__116allocator_traitsINS_9allocatorINS_11__hash_nodeINS_17__hash_value_typeIiP6ssl_stEEPvEEEEE8max_sizeB8ue170006IS9_vEEmRKS9_, symObjAddr: 0x9638, symBinAddr: 0x10000B858, symSize: 0x24 }
  - { offsetInCU: 0x24E98, offset: 0x24E98, size: 0x8, addend: 0x0, symName: __ZNKSt3__19allocatorINS_11__hash_nodeINS_17__hash_value_typeIiP6ssl_stEEPvEEE8max_sizeB8ue170006Ev, symObjAddr: 0x96F0, symBinAddr: 0x10000B910, symSize: 0x14 }
  - { offsetInCU: 0x24EBE, offset: 0x24EBE, size: 0x8, addend: 0x0, symName: __ZNSt3__122__hash_node_destructorINS_9allocatorINS_11__hash_nodeINS_17__hash_value_typeIiP6ssl_stEEPvEEEEEC2B8ue170006ERS9_b, symObjAddr: 0x9754, symBinAddr: 0x10000B974, symSize: 0x38 }
  - { offsetInCU: 0x24F06, offset: 0x24F06, size: 0x8, addend: 0x0, symName: __ZNSt3__110unique_ptrINS_11__hash_nodeINS_17__hash_value_typeIiP6ssl_stEEPvEENS_22__hash_node_destructorINS_9allocatorIS7_EEEEEC2B8ue170006ILb1EvEEPS7_NS_16__dependent_typeINS_27__unique_ptr_deleter_sfinaeISB_EEXT_EE20__good_rval_ref_typeE, symObjAddr: 0x978C, symBinAddr: 0x10000B9AC, symSize: 0x48 }
  - { offsetInCU: 0x24F57, offset: 0x24F57, size: 0x8, addend: 0x0, symName: __ZNSt3__117__compressed_pairIPNS_11__hash_nodeINS_17__hash_value_typeIiP6ssl_stEEPvEENS_22__hash_node_destructorINS_9allocatorIS7_EEEEEC1B8ue170006IRS8_SC_EEOT_OT0_, symObjAddr: 0x97D4, symBinAddr: 0x10000B9F4, symSize: 0x3C }
  - { offsetInCU: 0x24FAF, offset: 0x24FAF, size: 0x8, addend: 0x0, symName: __ZNSt3__117__compressed_pairIPNS_11__hash_nodeINS_17__hash_value_typeIiP6ssl_stEEPvEENS_22__hash_node_destructorINS_9allocatorIS7_EEEEEC2B8ue170006IRS8_SC_EEOT_OT0_, symObjAddr: 0x9810, symBinAddr: 0x10000BA30, symSize: 0x48 }
  - { offsetInCU: 0x25007, offset: 0x25007, size: 0x8, addend: 0x0, symName: __ZNSt3__122__compressed_pair_elemIPNS_11__hash_nodeINS_17__hash_value_typeIiP6ssl_stEEPvEELi0ELb0EEC2B8ue170006IRS8_vEEOT_, symObjAddr: 0x9858, symBinAddr: 0x10000BA78, symSize: 0x24 }
  - { offsetInCU: 0x25049, offset: 0x25049, size: 0x8, addend: 0x0, symName: __ZNSt3__122__compressed_pair_elemINS_22__hash_node_destructorINS_9allocatorINS_11__hash_nodeINS_17__hash_value_typeIiP6ssl_stEEPvEEEEEELi1ELb0EEC2B8ue170006ISB_vEEOT_, symObjAddr: 0x987C, symBinAddr: 0x10000BA9C, symSize: 0x24 }
  - { offsetInCU: 0x2508B, offset: 0x2508B, size: 0x8, addend: 0x0, symName: __ZNSt3__19allocatorINS_11__hash_nodeINS_17__hash_value_typeIiP6ssl_stEEPvEEE9constructB8ue170006INS_4pairIKiS4_EEJRKNS_21piecewise_construct_tENS_5tupleIJRSB_EEENSG_IJEEEEEEvPT_DpOT0_, symObjAddr: 0x98A0, symBinAddr: 0x10000BAC0, symSize: 0x44 }
  - { offsetInCU: 0x25107, offset: 0x25107, size: 0x8, addend: 0x0, symName: __ZNSt3__14pairIKiP6ssl_stEC1B8ue170006IJRS1_EJEEENS_21piecewise_construct_tENS_5tupleIJDpT_EEENS8_IJDpT0_EEE, symObjAddr: 0x98E4, symBinAddr: 0x10000BB04, symSize: 0x44 }
  - { offsetInCU: 0x2516E, offset: 0x2516E, size: 0x8, addend: 0x0, symName: __ZNSt3__14pairIKiP6ssl_stEC1B8ue170006IJRS1_EJEJLm0EEJEEENS_21piecewise_construct_tERNS_5tupleIJDpT_EEERNS8_IJDpT0_EEENS_15__tuple_indicesIJXspT1_EEEENSH_IJXspT2_EEEE, symObjAddr: 0x9928, symBinAddr: 0x10000BB48, symSize: 0x3C }
  - { offsetInCU: 0x251FE, offset: 0x251FE, size: 0x8, addend: 0x0, symName: __ZNSt3__14pairIKiP6ssl_stEC2B8ue170006IJRS1_EJEJLm0EEJEEENS_21piecewise_construct_tERNS_5tupleIJDpT_EEERNS8_IJDpT0_EEENS_15__tuple_indicesIJXspT1_EEEENSH_IJXspT2_EEEE, symObjAddr: 0x9964, symBinAddr: 0x10000BB84, symSize: 0x48 }
  - { offsetInCU: 0x2528E, offset: 0x2528E, size: 0x8, addend: 0x0, symName: __ZNSt3__112__tuple_leafILm0ERKiLb0EE3getB8ue170006Ev, symObjAddr: 0x99D0, symBinAddr: 0x10000BBF0, symSize: 0x18 }
  - { offsetInCU: 0x252B4, offset: 0x252B4, size: 0x8, addend: 0x0, symName: __ZNSt3__117__compressed_pairIPNS_11__hash_nodeINS_17__hash_value_typeIiP6ssl_stEEPvEENS_22__hash_node_destructorINS_9allocatorIS7_EEEEE6secondB8ue170006Ev, symObjAddr: 0x99E8, symBinAddr: 0x10000BC08, symSize: 0x28 }
  - { offsetInCU: 0x252DA, offset: 0x252DA, size: 0x8, addend: 0x0, symName: __ZNSt3__122__compressed_pair_elemINS_22__hash_node_destructorINS_9allocatorINS_11__hash_nodeINS_17__hash_value_typeIiP6ssl_stEEPvEEEEEELi1ELb0EE5__getB8ue170006Ev, symObjAddr: 0x9A10, symBinAddr: 0x10000BC30, symSize: 0x14 }
  - { offsetInCU: 0x25300, offset: 0x25300, size: 0x8, addend: 0x0, symName: __ZNSt3__117__compressed_pairImNS_22__unordered_map_hasherIiNS_17__hash_value_typeIiP6ssl_stEENS_4hashIiEENS_8equal_toIiEELb1EEEE5firstB8ue170006Ev, symObjAddr: 0x9A24, symBinAddr: 0x10000BC44, symSize: 0x24 }
  - { offsetInCU: 0x25326, offset: 0x25326, size: 0x8, addend: 0x0, symName: __ZNSt3__117__compressed_pairIfNS_21__unordered_map_equalIiNS_17__hash_value_typeIiP6ssl_stEENS_8equal_toIiEENS_4hashIiEELb1EEEE5firstB8ue170006Ev, symObjAddr: 0x9A48, symBinAddr: 0x10000BC68, symSize: 0x24 }
  - { offsetInCU: 0x2534C, offset: 0x2534C, size: 0x8, addend: 0x0, symName: __ZNSt3__122__compressed_pair_elemIfLi0ELb0EE5__getB8ue170006Ev, symObjAddr: 0x9A6C, symBinAddr: 0x10000BC8C, symSize: 0x14 }
  - { offsetInCU: 0x25372, offset: 0x25372, size: 0x8, addend: 0x0, symName: __ZNSt3__112__hash_tableINS_17__hash_value_typeIiP6ssl_stEENS_22__unordered_map_hasherIiS4_NS_4hashIiEENS_8equal_toIiEELb1EEENS_21__unordered_map_equalIiS4_S9_S7_Lb1EEENS_9allocatorIS4_EEE8__rehashILb1EEEvm, symObjAddr: 0x9A80, symBinAddr: 0x10000BCA0, symSize: 0x1A8 }
  - { offsetInCU: 0x253C2, offset: 0x253C2, size: 0x8, addend: 0x0, symName: __ZNSt3__112__hash_tableINS_17__hash_value_typeIiP6ssl_stEENS_22__unordered_map_hasherIiS4_NS_4hashIiEENS_8equal_toIiEELb1EEENS_21__unordered_map_equalIiS4_S9_S7_Lb1EEENS_9allocatorIS4_EEE11__do_rehashILb1EEEvm, symObjAddr: 0x9C28, symBinAddr: 0x10000BE48, symSize: 0x288 }
  - { offsetInCU: 0x254A5, offset: 0x254A5, size: 0x8, addend: 0x0, symName: __ZNSt3__110unique_ptrIA_PNS_16__hash_node_baseIPNS_11__hash_nodeINS_17__hash_value_typeIiP6ssl_stEEPvEEEENS_25__bucket_list_deallocatorINS_9allocatorISB_EEEEE11get_deleterB8ue170006Ev, symObjAddr: 0x9F1C, symBinAddr: 0x10000C13C, symSize: 0x24 }
  - { offsetInCU: 0x254CB, offset: 0x254CB, size: 0x8, addend: 0x0, symName: __ZNSt3__110unique_ptrIA_PNS_16__hash_node_baseIPNS_11__hash_nodeINS_17__hash_value_typeIiP6ssl_stEEPvEEEENS_25__bucket_list_deallocatorINS_9allocatorISB_EEEEE5resetB8ue170006IPSB_EENS_9enable_ifIXsr28_CheckArrayPointerConversionIT_EE5valueEvE4typeESL_, symObjAddr: 0x9F40, symBinAddr: 0x10000C160, symSize: 0x78 }
  - { offsetInCU: 0x25518, offset: 0x25518, size: 0x8, addend: 0x0, symName: __ZNSt3__116allocator_traitsINS_9allocatorIPNS_16__hash_node_baseIPNS_11__hash_nodeINS_17__hash_value_typeIiP6ssl_stEEPvEEEEEEE8allocateB8ue170006ERSD_m, symObjAddr: 0x9FB8, symBinAddr: 0x10000C1D8, symSize: 0x2C }
  - { offsetInCU: 0x2554B, offset: 0x2554B, size: 0x8, addend: 0x0, symName: __ZNSt3__19allocatorIPNS_16__hash_node_baseIPNS_11__hash_nodeINS_17__hash_value_typeIiP6ssl_stEEPvEEEEE8allocateB8ue170006Em, symObjAddr: 0x9FE4, symBinAddr: 0x10000C204, symSize: 0x58 }
  - { offsetInCU: 0x25589, offset: 0x25589, size: 0x8, addend: 0x0, symName: __ZNSt3__116allocator_traitsINS_9allocatorIPNS_16__hash_node_baseIPNS_11__hash_nodeINS_17__hash_value_typeIiP6ssl_stEEPvEEEEEEE8max_sizeB8ue170006ISD_vEEmRKSD_, symObjAddr: 0xA03C, symBinAddr: 0x10000C25C, symSize: 0x24 }
  - { offsetInCU: 0x255B7, offset: 0x255B7, size: 0x8, addend: 0x0, symName: __ZNKSt3__19allocatorIPNS_16__hash_node_baseIPNS_11__hash_nodeINS_17__hash_value_typeIiP6ssl_stEEPvEEEEE8max_sizeB8ue170006Ev, symObjAddr: 0xA060, symBinAddr: 0x10000C280, symSize: 0x14 }
  - { offsetInCU: 0x255E7, offset: 0x255E7, size: 0x8, addend: 0x0, symName: __ZNKSt3__16__lessIvvEclB8ue170006ImmEEbRKT_RKT0_, symObjAddr: 0xA0E4, symBinAddr: 0x10000C304, symSize: 0x34 }
  - { offsetInCU: 0x2563B, offset: 0x2563B, size: 0x8, addend: 0x0, symName: __ZNKSt3__117__compressed_pairIPNS_11__hash_nodeINS_17__hash_value_typeIiP6ssl_stEEPvEENS_22__hash_node_destructorINS_9allocatorIS7_EEEEE5firstB8ue170006Ev, symObjAddr: 0xA118, symBinAddr: 0x10000C338, symSize: 0x24 }
  - { offsetInCU: 0x25661, offset: 0x25661, size: 0x8, addend: 0x0, symName: __ZNKSt3__122__compressed_pair_elemIPNS_11__hash_nodeINS_17__hash_value_typeIiP6ssl_stEEPvEELi0ELb0EE5__getB8ue170006Ev, symObjAddr: 0xA13C, symBinAddr: 0x10000C35C, symSize: 0x14 }
  - { offsetInCU: 0x25687, offset: 0x25687, size: 0x8, addend: 0x0, symName: __ZNSt3__117__compressed_pairIPNS_11__hash_nodeINS_17__hash_value_typeIiP6ssl_stEEPvEENS_22__hash_node_destructorINS_9allocatorIS7_EEEEE5firstB8ue170006Ev, symObjAddr: 0xA150, symBinAddr: 0x10000C370, symSize: 0x24 }
  - { offsetInCU: 0x256AD, offset: 0x256AD, size: 0x8, addend: 0x0, symName: __ZNSt3__122__compressed_pair_elemIPNS_11__hash_nodeINS_17__hash_value_typeIiP6ssl_stEEPvEELi0ELb0EE5__getB8ue170006Ev, symObjAddr: 0xA174, symBinAddr: 0x10000C394, symSize: 0x14 }
  - { offsetInCU: 0x256D3, offset: 0x256D3, size: 0x8, addend: 0x0, symName: __ZNSt3__110unique_ptrINS_11__hash_nodeINS_17__hash_value_typeIiP6ssl_stEEPvEENS_22__hash_node_destructorINS_9allocatorIS7_EEEEED2B8ue170006Ev, symObjAddr: 0xA188, symBinAddr: 0x10000C3A8, symSize: 0x30 }
  - { offsetInCU: 0x256FD, offset: 0x256FD, size: 0x8, addend: 0x0, symName: __ZNSt3__110unique_ptrINS_11__hash_nodeINS_17__hash_value_typeIiP6ssl_stEEPvEENS_22__hash_node_destructorINS_9allocatorIS7_EEEEE5resetB8ue170006EPS7_, symObjAddr: 0xA1B8, symBinAddr: 0x10000C3D8, symSize: 0x78 }
  - { offsetInCU: 0x25741, offset: 0x25741, size: 0x8, addend: 0x0, symName: __ZNSt3__122__hash_node_destructorINS_9allocatorINS_11__hash_nodeINS_17__hash_value_typeIiP6ssl_stEEPvEEEEEclB8ue170006EPS8_, symObjAddr: 0xA230, symBinAddr: 0x10000C450, symSize: 0x94 }
  - { offsetInCU: 0x25776, offset: 0x25776, size: 0x8, addend: 0x0, symName: __ZNSt3__115__hash_iteratorIPNS_11__hash_nodeINS_17__hash_value_typeIiP6ssl_stEEPvEEEC2B8ue170006EPNS_16__hash_node_baseIS8_EE, symObjAddr: 0xA2C4, symBinAddr: 0x10000C4E4, symSize: 0x20 }
  - { offsetInCU: 0x257AF, offset: 0x257AF, size: 0x8, addend: 0x0, symName: __ZNSt3__14pairINS_15__hash_iteratorIPNS_11__hash_nodeINS_17__hash_value_typeIiP6ssl_stEEPvEEEEbEC2B8ue170006ISA_RbLS7_0EEEOT_OT0_, symObjAddr: 0xA2E4, symBinAddr: 0x10000C504, symSize: 0x38 }
  - { offsetInCU: 0x2580D, offset: 0x2580D, size: 0x8, addend: 0x0, symName: __ZNSt3__15tupleIJRKiEEC1B8ue170006INS_4_AndELi0EEES2_, symObjAddr: 0xA31C, symBinAddr: 0x10000C53C, symSize: 0x34 }
  - { offsetInCU: 0x25855, offset: 0x25855, size: 0x8, addend: 0x0, symName: __ZNSt3__15tupleIJRKiEEC2B8ue170006INS_4_AndELi0EEES2_, symObjAddr: 0xA350, symBinAddr: 0x10000C570, symSize: 0x34 }
  - { offsetInCU: 0x2589D, offset: 0x2589D, size: 0x8, addend: 0x0, symName: __ZNSt3__112__tuple_implINS_15__tuple_indicesIJLm0EEEEJRKiEEC1B8ue170006IJLm0EEJS4_EJEJEJS4_EEENS1_IJXspT_EEEENS_13__tuple_typesIJDpT0_EEENS1_IJXspT1_EEEENS8_IJDpT2_EEEDpOT3_, symObjAddr: 0xA384, symBinAddr: 0x10000C5A4, symSize: 0x34 }
  - { offsetInCU: 0x25932, offset: 0x25932, size: 0x8, addend: 0x0, symName: __ZNSt3__112__tuple_implINS_15__tuple_indicesIJLm0EEEEJRKiEEC2B8ue170006IJLm0EEJS4_EJEJEJS4_EEENS1_IJXspT_EEEENS_13__tuple_typesIJDpT0_EEENS1_IJXspT1_EEEENS8_IJDpT2_EEEDpOT3_, symObjAddr: 0xA3B8, symBinAddr: 0x10000C5D8, symSize: 0x34 }
  - { offsetInCU: 0x259C7, offset: 0x259C7, size: 0x8, addend: 0x0, symName: __ZNSt3__112__tuple_leafILm0ERKiLb0EEC2B8ue170006IS2_vEEOT_, symObjAddr: 0xA3EC, symBinAddr: 0x10000C60C, symSize: 0x20 }
  - { offsetInCU: 0x25A0A, offset: 0x25A0A, size: 0x8, addend: 0x0, symName: __ZNSt3__114pointer_traitsIPNS_17__hash_value_typeIiP6ssl_stEEE10pointer_toB8ue170006ERS4_, symObjAddr: 0xA40C, symBinAddr: 0x10000C62C, symSize: 0x14 }
  - { offsetInCU: 0x25A2D, offset: 0x25A2D, size: 0x8, addend: 0x0, symName: __ZNSt3__112__hash_tableINS_17__hash_value_typeIiNS_12basic_stringIcNS_11char_traitsIcEENS_9allocatorIcEEEEEENS_22__unordered_map_hasherIiS8_NS_4hashIiEENS_8equal_toIiEELb1EEENS_21__unordered_map_equalIiS8_SD_SB_Lb1EEENS5_IS8_EEE25__emplace_unique_key_argsIiJRKNS_21piecewise_construct_tENS_5tupleIJRKiEEENSN_IJEEEEEENS_4pairINS_15__hash_iteratorIPNS_11__hash_nodeIS8_PvEEEEbEERKT_DpOT0_, symObjAddr: 0xA420, symBinAddr: 0x10000C640, symSize: 0x4CC }
  - { offsetInCU: 0x25B37, offset: 0x25B37, size: 0x8, addend: 0x0, symName: __ZNKSt3__115__hash_iteratorIPNS_11__hash_nodeINS_17__hash_value_typeIiNS_12basic_stringIcNS_11char_traitsIcEENS_9allocatorIcEEEEEEPvEEEptB8ue170006Ev, symObjAddr: 0xA8EC, symBinAddr: 0x10000CB0C, symSize: 0x30 }
  - { offsetInCU: 0x25B5D, offset: 0x25B5D, size: 0x8, addend: 0x0, symName: __ZNSt3__112__hash_tableINS_17__hash_value_typeIiNS_12basic_stringIcNS_11char_traitsIcEENS_9allocatorIcEEEEEENS_22__unordered_map_hasherIiS8_NS_4hashIiEENS_8equal_toIiEELb1EEENS_21__unordered_map_equalIiS8_SD_SB_Lb1EEENS5_IS8_EEE13hash_functionB8ue170006Ev, symObjAddr: 0xA91C, symBinAddr: 0x10000CB3C, symSize: 0x28 }
  - { offsetInCU: 0x25B83, offset: 0x25B83, size: 0x8, addend: 0x0, symName: __ZNKSt3__122__unordered_map_hasherIiNS_17__hash_value_typeIiNS_12basic_stringIcNS_11char_traitsIcEENS_9allocatorIcEEEEEENS_4hashIiEENS_8equal_toIiEELb1EEclB8ue170006ERKi, symObjAddr: 0xA944, symBinAddr: 0x10000CB64, symSize: 0x30 }
  - { offsetInCU: 0x25BB8, offset: 0x25BB8, size: 0x8, addend: 0x0, symName: __ZNKSt3__112__hash_tableINS_17__hash_value_typeIiNS_12basic_stringIcNS_11char_traitsIcEENS_9allocatorIcEEEEEENS_22__unordered_map_hasherIiS8_NS_4hashIiEENS_8equal_toIiEELb1EEENS_21__unordered_map_equalIiS8_SD_SB_Lb1EEENS5_IS8_EEE12bucket_countB8ue170006Ev, symObjAddr: 0xA974, symBinAddr: 0x10000CB94, symSize: 0x28 }
  - { offsetInCU: 0x25BDE, offset: 0x25BDE, size: 0x8, addend: 0x0, symName: __ZNKSt3__110unique_ptrIA_PNS_16__hash_node_baseIPNS_11__hash_nodeINS_17__hash_value_typeIiNS_12basic_stringIcNS_11char_traitsIcEENS_9allocatorIcEEEEEEPvEEEENS_25__bucket_list_deallocatorINS7_ISF_EEEEEixB8ue170006Em, symObjAddr: 0xA99C, symBinAddr: 0x10000CBBC, symSize: 0x34 }
  - { offsetInCU: 0x25C13, offset: 0x25C13, size: 0x8, addend: 0x0, symName: __ZNKSt3__116__hash_node_baseIPNS_11__hash_nodeINS_17__hash_value_typeIiNS_12basic_stringIcNS_11char_traitsIcEENS_9allocatorIcEEEEEEPvEEE6__hashB8ue170006Ev, symObjAddr: 0xA9D0, symBinAddr: 0x10000CBF0, symSize: 0x18 }
  - { offsetInCU: 0x25C39, offset: 0x25C39, size: 0x8, addend: 0x0, symName: __ZNSt3__112__hash_tableINS_17__hash_value_typeIiNS_12basic_stringIcNS_11char_traitsIcEENS_9allocatorIcEEEEEENS_22__unordered_map_hasherIiS8_NS_4hashIiEENS_8equal_toIiEELb1EEENS_21__unordered_map_equalIiS8_SD_SB_Lb1EEENS5_IS8_EEE6key_eqB8ue170006Ev, symObjAddr: 0xA9E8, symBinAddr: 0x10000CC08, symSize: 0x28 }
  - { offsetInCU: 0x25C5F, offset: 0x25C5F, size: 0x8, addend: 0x0, symName: __ZNKSt3__121__unordered_map_equalIiNS_17__hash_value_typeIiNS_12basic_stringIcNS_11char_traitsIcEENS_9allocatorIcEEEEEENS_8equal_toIiEENS_4hashIiEELb1EEclB8ue170006ERKS8_RKi, symObjAddr: 0xAA10, symBinAddr: 0x10000CC30, symSize: 0x48 }
  - { offsetInCU: 0x25CA3, offset: 0x25CA3, size: 0x8, addend: 0x0, symName: __ZNSt3__112__hash_tableINS_17__hash_value_typeIiNS_12basic_stringIcNS_11char_traitsIcEENS_9allocatorIcEEEEEENS_22__unordered_map_hasherIiS8_NS_4hashIiEENS_8equal_toIiEELb1EEENS_21__unordered_map_equalIiS8_SD_SB_Lb1EEENS5_IS8_EEE21__construct_node_hashIRKNS_21piecewise_construct_tEJNS_5tupleIJRKiEEENSN_IJEEEEEENS_10unique_ptrINS_11__hash_nodeIS8_PvEENS_22__hash_node_destructorINS5_ISV_EEEEEEmOT_DpOT0_, symObjAddr: 0xAA58, symBinAddr: 0x10000CC78, symSize: 0x150 }
  - { offsetInCU: 0x25D3F, offset: 0x25D3F, size: 0x8, addend: 0x0, symName: __ZNSt3__112__hash_tableINS_17__hash_value_typeIiNS_12basic_stringIcNS_11char_traitsIcEENS_9allocatorIcEEEEEENS_22__unordered_map_hasherIiS8_NS_4hashIiEENS_8equal_toIiEELb1EEENS_21__unordered_map_equalIiS8_SD_SB_Lb1EEENS5_IS8_EEE4sizeB8ue170006Ev, symObjAddr: 0xABA8, symBinAddr: 0x10000CDC8, symSize: 0x28 }
  - { offsetInCU: 0x25D65, offset: 0x25D65, size: 0x8, addend: 0x0, symName: __ZNSt3__112__hash_tableINS_17__hash_value_typeIiNS_12basic_stringIcNS_11char_traitsIcEENS_9allocatorIcEEEEEENS_22__unordered_map_hasherIiS8_NS_4hashIiEENS_8equal_toIiEELb1EEENS_21__unordered_map_equalIiS8_SD_SB_Lb1EEENS5_IS8_EEE15max_load_factorB8ue170006Ev, symObjAddr: 0xABD0, symBinAddr: 0x10000CDF0, symSize: 0x28 }
  - { offsetInCU: 0x25D8B, offset: 0x25D8B, size: 0x8, addend: 0x0, symName: __ZNSt3__112__hash_tableINS_17__hash_value_typeIiNS_12basic_stringIcNS_11char_traitsIcEENS_9allocatorIcEEEEEENS_22__unordered_map_hasherIiS8_NS_4hashIiEENS_8equal_toIiEELb1EEENS_21__unordered_map_equalIiS8_SD_SB_Lb1EEENS5_IS8_EEE15__rehash_uniqueB8ue170006Em, symObjAddr: 0xABF8, symBinAddr: 0x10000CE18, symSize: 0x2C }
  - { offsetInCU: 0x25DC0, offset: 0x25DC0, size: 0x8, addend: 0x0, symName: __ZNSt3__116__hash_node_baseIPNS_11__hash_nodeINS_17__hash_value_typeIiNS_12basic_stringIcNS_11char_traitsIcEENS_9allocatorIcEEEEEEPvEEE5__ptrB8ue170006Ev, symObjAddr: 0xAC24, symBinAddr: 0x10000CE44, symSize: 0x24 }
  - { offsetInCU: 0x25DE6, offset: 0x25DE6, size: 0x8, addend: 0x0, symName: __ZNKSt3__110unique_ptrINS_11__hash_nodeINS_17__hash_value_typeIiNS_12basic_stringIcNS_11char_traitsIcEENS_9allocatorIcEEEEEEPvEENS_22__hash_node_destructorINS6_ISB_EEEEEptB8ue170006Ev, symObjAddr: 0xAC48, symBinAddr: 0x10000CE68, symSize: 0x28 }
  - { offsetInCU: 0x25E0C, offset: 0x25E0C, size: 0x8, addend: 0x0, symName: __ZNKSt3__110unique_ptrINS_11__hash_nodeINS_17__hash_value_typeIiNS_12basic_stringIcNS_11char_traitsIcEENS_9allocatorIcEEEEEEPvEENS_22__hash_node_destructorINS6_ISB_EEEEE3getB8ue170006Ev, symObjAddr: 0xAC70, symBinAddr: 0x10000CE90, symSize: 0x28 }
  - { offsetInCU: 0x25E32, offset: 0x25E32, size: 0x8, addend: 0x0, symName: __ZNSt3__110unique_ptrINS_11__hash_nodeINS_17__hash_value_typeIiNS_12basic_stringIcNS_11char_traitsIcEENS_9allocatorIcEEEEEEPvEENS_22__hash_node_destructorINS6_ISB_EEEEE7releaseB8ue170006Ev, symObjAddr: 0xAC98, symBinAddr: 0x10000CEB8, symSize: 0x44 }
  - { offsetInCU: 0x25E67, offset: 0x25E67, size: 0x8, addend: 0x0, symName: __ZNSt3__110unique_ptrINS_11__hash_nodeINS_17__hash_value_typeIiNS_12basic_stringIcNS_11char_traitsIcEENS_9allocatorIcEEEEEEPvEENS_22__hash_node_destructorINS6_ISB_EEEEED1B8ue170006Ev, symObjAddr: 0xACDC, symBinAddr: 0x10000CEFC, symSize: 0x2C }
  - { offsetInCU: 0x25E91, offset: 0x25E91, size: 0x8, addend: 0x0, symName: __ZNSt3__115__hash_iteratorIPNS_11__hash_nodeINS_17__hash_value_typeIiNS_12basic_stringIcNS_11char_traitsIcEENS_9allocatorIcEEEEEEPvEEEC1B8ue170006EPNS_16__hash_node_baseISC_EE, symObjAddr: 0xAD08, symBinAddr: 0x10000CF28, symSize: 0x34 }
  - { offsetInCU: 0x25ECF, offset: 0x25ECF, size: 0x8, addend: 0x0, symName: __ZNSt3__14pairINS_15__hash_iteratorIPNS_11__hash_nodeINS_17__hash_value_typeIiNS_12basic_stringIcNS_11char_traitsIcEENS_9allocatorIcEEEEEEPvEEEEbEC1B8ue170006ISE_RbLSB_0EEEOT_OT0_, symObjAddr: 0xAD3C, symBinAddr: 0x10000CF5C, symSize: 0x3C }
  - { offsetInCU: 0x25F2D, offset: 0x25F2D, size: 0x8, addend: 0x0, symName: __ZNSt3__117__compressed_pairImNS_22__unordered_map_hasherIiNS_17__hash_value_typeIiNS_12basic_stringIcNS_11char_traitsIcEENS_9allocatorIcEEEEEENS_4hashIiEENS_8equal_toIiEELb1EEEE6secondB8ue170006Ev, symObjAddr: 0xAD78, symBinAddr: 0x10000CF98, symSize: 0x24 }
  - { offsetInCU: 0x25F53, offset: 0x25F53, size: 0x8, addend: 0x0, symName: __ZNSt3__122__compressed_pair_elemINS_22__unordered_map_hasherIiNS_17__hash_value_typeIiNS_12basic_stringIcNS_11char_traitsIcEENS_9allocatorIcEEEEEENS_4hashIiEENS_8equal_toIiEELb1EEELi1ELb1EE5__getB8ue170006Ev, symObjAddr: 0xAD9C, symBinAddr: 0x10000CFBC, symSize: 0x14 }
  - { offsetInCU: 0x25F79, offset: 0x25F79, size: 0x8, addend: 0x0, symName: __ZNKSt3__110unique_ptrIA_PNS_16__hash_node_baseIPNS_11__hash_nodeINS_17__hash_value_typeIiNS_12basic_stringIcNS_11char_traitsIcEENS_9allocatorIcEEEEEEPvEEEENS_25__bucket_list_deallocatorINS7_ISF_EEEEE11get_deleterB8ue170006Ev, symObjAddr: 0xADB0, symBinAddr: 0x10000CFD0, symSize: 0x24 }
  - { offsetInCU: 0x25F9F, offset: 0x25F9F, size: 0x8, addend: 0x0, symName: __ZNKSt3__125__bucket_list_deallocatorINS_9allocatorIPNS_16__hash_node_baseIPNS_11__hash_nodeINS_17__hash_value_typeIiNS_12basic_stringIcNS_11char_traitsIcEENS1_IcEEEEEEPvEEEEEEE4sizeB8ue170006Ev, symObjAddr: 0xADD4, symBinAddr: 0x10000CFF4, symSize: 0x28 }
  - { offsetInCU: 0x25FC5, offset: 0x25FC5, size: 0x8, addend: 0x0, symName: __ZNKSt3__117__compressed_pairIPPNS_16__hash_node_baseIPNS_11__hash_nodeINS_17__hash_value_typeIiNS_12basic_stringIcNS_11char_traitsIcEENS_9allocatorIcEEEEEEPvEEEENS_25__bucket_list_deallocatorINS7_ISF_EEEEE6secondB8ue170006Ev, symObjAddr: 0xADFC, symBinAddr: 0x10000D01C, symSize: 0x28 }
  - { offsetInCU: 0x25FEB, offset: 0x25FEB, size: 0x8, addend: 0x0, symName: __ZNKSt3__122__compressed_pair_elemINS_25__bucket_list_deallocatorINS_9allocatorIPNS_16__hash_node_baseIPNS_11__hash_nodeINS_17__hash_value_typeIiNS_12basic_stringIcNS_11char_traitsIcEENS2_IcEEEEEEPvEEEEEEEELi1ELb0EE5__getB8ue170006Ev, symObjAddr: 0xAE24, symBinAddr: 0x10000D044, symSize: 0x14 }
  - { offsetInCU: 0x26011, offset: 0x26011, size: 0x8, addend: 0x0, symName: __ZNKSt3__117__compressed_pairImNS_9allocatorIPNS_16__hash_node_baseIPNS_11__hash_nodeINS_17__hash_value_typeIiNS_12basic_stringIcNS_11char_traitsIcEENS1_IcEEEEEEPvEEEEEEE5firstB8ue170006Ev, symObjAddr: 0xAE38, symBinAddr: 0x10000D058, symSize: 0x24 }
  - { offsetInCU: 0x26037, offset: 0x26037, size: 0x8, addend: 0x0, symName: __ZNKSt3__117__compressed_pairIPPNS_16__hash_node_baseIPNS_11__hash_nodeINS_17__hash_value_typeIiNS_12basic_stringIcNS_11char_traitsIcEENS_9allocatorIcEEEEEEPvEEEENS_25__bucket_list_deallocatorINS7_ISF_EEEEE5firstB8ue170006Ev, symObjAddr: 0xAE5C, symBinAddr: 0x10000D07C, symSize: 0x24 }
  - { offsetInCU: 0x2605D, offset: 0x2605D, size: 0x8, addend: 0x0, symName: __ZNKSt3__122__compressed_pair_elemIPPNS_16__hash_node_baseIPNS_11__hash_nodeINS_17__hash_value_typeIiNS_12basic_stringIcNS_11char_traitsIcEENS_9allocatorIcEEEEEEPvEEEELi0ELb0EE5__getB8ue170006Ev, symObjAddr: 0xAE80, symBinAddr: 0x10000D0A0, symSize: 0x14 }
  - { offsetInCU: 0x26083, offset: 0x26083, size: 0x8, addend: 0x0, symName: __ZNSt3__117__compressed_pairIfNS_21__unordered_map_equalIiNS_17__hash_value_typeIiNS_12basic_stringIcNS_11char_traitsIcEENS_9allocatorIcEEEEEENS_8equal_toIiEENS_4hashIiEELb1EEEE6secondB8ue170006Ev, symObjAddr: 0xAE94, symBinAddr: 0x10000D0B4, symSize: 0x24 }
  - { offsetInCU: 0x260A9, offset: 0x260A9, size: 0x8, addend: 0x0, symName: __ZNSt3__122__compressed_pair_elemINS_21__unordered_map_equalIiNS_17__hash_value_typeIiNS_12basic_stringIcNS_11char_traitsIcEENS_9allocatorIcEEEEEENS_8equal_toIiEENS_4hashIiEELb1EEELi1ELb1EE5__getB8ue170006Ev, symObjAddr: 0xAEB8, symBinAddr: 0x10000D0D8, symSize: 0x14 }
  - { offsetInCU: 0x260CF, offset: 0x260CF, size: 0x8, addend: 0x0, symName: __ZNKSt3__117__hash_value_typeIiNS_12basic_stringIcNS_11char_traitsIcEENS_9allocatorIcEEEEE11__get_valueB8ue170006Ev, symObjAddr: 0xAECC, symBinAddr: 0x10000D0EC, symSize: 0x24 }
  - { offsetInCU: 0x260F5, offset: 0x260F5, size: 0x8, addend: 0x0, symName: __ZNSt3__116allocator_traitsINS_9allocatorINS_11__hash_nodeINS_17__hash_value_typeIiNS_12basic_stringIcNS_11char_traitsIcEENS1_IcEEEEEEPvEEEEE8allocateB8ue170006ERSC_m, symObjAddr: 0xAF28, symBinAddr: 0x10000D148, symSize: 0x2C }
  - { offsetInCU: 0x26128, offset: 0x26128, size: 0x8, addend: 0x0, symName: __ZNSt3__122__hash_node_destructorINS_9allocatorINS_11__hash_nodeINS_17__hash_value_typeIiNS_12basic_stringIcNS_11char_traitsIcEENS1_IcEEEEEEPvEEEEEC1B8ue170006ERSC_b, symObjAddr: 0xAF54, symBinAddr: 0x10000D174, symSize: 0x48 }
  - { offsetInCU: 0x26175, offset: 0x26175, size: 0x8, addend: 0x0, symName: __ZNSt3__110unique_ptrINS_11__hash_nodeINS_17__hash_value_typeIiNS_12basic_stringIcNS_11char_traitsIcEENS_9allocatorIcEEEEEEPvEENS_22__hash_node_destructorINS6_ISB_EEEEEC1B8ue170006ILb1EvEEPSB_NS_16__dependent_typeINS_27__unique_ptr_deleter_sfinaeISE_EEXT_EE20__good_rval_ref_typeE, symObjAddr: 0xAF9C, symBinAddr: 0x10000D1BC, symSize: 0x3C }
  - { offsetInCU: 0x261C6, offset: 0x261C6, size: 0x8, addend: 0x0, symName: __ZNSt3__116allocator_traitsINS_9allocatorINS_11__hash_nodeINS_17__hash_value_typeIiNS_12basic_stringIcNS_11char_traitsIcEENS1_IcEEEEEEPvEEEEE9constructB8ue170006INS_4pairIKiS8_EEJRKNS_21piecewise_construct_tENS_5tupleIJRSG_EEENSL_IJEEEEvEEvRSC_PT_DpOT0_, symObjAddr: 0xAFD8, symBinAddr: 0x10000D1F8, symSize: 0x44 }
  - { offsetInCU: 0x26245, offset: 0x26245, size: 0x8, addend: 0x0, symName: __ZNSt3__110unique_ptrINS_11__hash_nodeINS_17__hash_value_typeIiNS_12basic_stringIcNS_11char_traitsIcEENS_9allocatorIcEEEEEEPvEENS_22__hash_node_destructorINS6_ISB_EEEEE11get_deleterB8ue170006Ev, symObjAddr: 0xB01C, symBinAddr: 0x10000D23C, symSize: 0x24 }
  - { offsetInCU: 0x2626B, offset: 0x2626B, size: 0x8, addend: 0x0, symName: __ZNSt3__19allocatorINS_11__hash_nodeINS_17__hash_value_typeIiNS_12basic_stringIcNS_11char_traitsIcEENS0_IcEEEEEEPvEEE8allocateB8ue170006Em, symObjAddr: 0xB040, symBinAddr: 0x10000D260, symSize: 0x5C }
  - { offsetInCU: 0x262A9, offset: 0x262A9, size: 0x8, addend: 0x0, symName: __ZNSt3__116allocator_traitsINS_9allocatorINS_11__hash_nodeINS_17__hash_value_typeIiNS_12basic_stringIcNS_11char_traitsIcEENS1_IcEEEEEEPvEEEEE8max_sizeB8ue170006ISC_vEEmRKSC_, symObjAddr: 0xB09C, symBinAddr: 0x10000D2BC, symSize: 0x24 }
  - { offsetInCU: 0x262D7, offset: 0x262D7, size: 0x8, addend: 0x0, symName: __ZNKSt3__19allocatorINS_11__hash_nodeINS_17__hash_value_typeIiNS_12basic_stringIcNS_11char_traitsIcEENS0_IcEEEEEEPvEEE8max_sizeB8ue170006Ev, symObjAddr: 0xB0C0, symBinAddr: 0x10000D2E0, symSize: 0x18 }
  - { offsetInCU: 0x262FD, offset: 0x262FD, size: 0x8, addend: 0x0, symName: __ZNSt3__122__hash_node_destructorINS_9allocatorINS_11__hash_nodeINS_17__hash_value_typeIiNS_12basic_stringIcNS_11char_traitsIcEENS1_IcEEEEEEPvEEEEEC2B8ue170006ERSC_b, symObjAddr: 0xB0D8, symBinAddr: 0x10000D2F8, symSize: 0x38 }
  - { offsetInCU: 0x26345, offset: 0x26345, size: 0x8, addend: 0x0, symName: __ZNSt3__110unique_ptrINS_11__hash_nodeINS_17__hash_value_typeIiNS_12basic_stringIcNS_11char_traitsIcEENS_9allocatorIcEEEEEEPvEENS_22__hash_node_destructorINS6_ISB_EEEEEC2B8ue170006ILb1EvEEPSB_NS_16__dependent_typeINS_27__unique_ptr_deleter_sfinaeISE_EEXT_EE20__good_rval_ref_typeE, symObjAddr: 0xB110, symBinAddr: 0x10000D330, symSize: 0x48 }
  - { offsetInCU: 0x26396, offset: 0x26396, size: 0x8, addend: 0x0, symName: __ZNSt3__117__compressed_pairIPNS_11__hash_nodeINS_17__hash_value_typeIiNS_12basic_stringIcNS_11char_traitsIcEENS_9allocatorIcEEEEEEPvEENS_22__hash_node_destructorINS6_ISB_EEEEEC1B8ue170006IRSC_SF_EEOT_OT0_, symObjAddr: 0xB158, symBinAddr: 0x10000D378, symSize: 0x3C }
  - { offsetInCU: 0x263EE, offset: 0x263EE, size: 0x8, addend: 0x0, symName: __ZNSt3__117__compressed_pairIPNS_11__hash_nodeINS_17__hash_value_typeIiNS_12basic_stringIcNS_11char_traitsIcEENS_9allocatorIcEEEEEEPvEENS_22__hash_node_destructorINS6_ISB_EEEEEC2B8ue170006IRSC_SF_EEOT_OT0_, symObjAddr: 0xB194, symBinAddr: 0x10000D3B4, symSize: 0x48 }
  - { offsetInCU: 0x26446, offset: 0x26446, size: 0x8, addend: 0x0, symName: __ZNSt3__122__compressed_pair_elemIPNS_11__hash_nodeINS_17__hash_value_typeIiNS_12basic_stringIcNS_11char_traitsIcEENS_9allocatorIcEEEEEEPvEELi0ELb0EEC2B8ue170006IRSC_vEEOT_, symObjAddr: 0xB1DC, symBinAddr: 0x10000D3FC, symSize: 0x24 }
  - { offsetInCU: 0x26488, offset: 0x26488, size: 0x8, addend: 0x0, symName: __ZNSt3__122__compressed_pair_elemINS_22__hash_node_destructorINS_9allocatorINS_11__hash_nodeINS_17__hash_value_typeIiNS_12basic_stringIcNS_11char_traitsIcEENS2_IcEEEEEEPvEEEEEELi1ELb0EEC2B8ue170006ISE_vEEOT_, symObjAddr: 0xB200, symBinAddr: 0x10000D420, symSize: 0x24 }
  - { offsetInCU: 0x264CA, offset: 0x264CA, size: 0x8, addend: 0x0, symName: __ZNSt3__19allocatorINS_11__hash_nodeINS_17__hash_value_typeIiNS_12basic_stringIcNS_11char_traitsIcEENS0_IcEEEEEEPvEEE9constructB8ue170006INS_4pairIKiS7_EEJRKNS_21piecewise_construct_tENS_5tupleIJRSE_EEENSJ_IJEEEEEEvPT_DpOT0_, symObjAddr: 0xB224, symBinAddr: 0x10000D444, symSize: 0x44 }
  - { offsetInCU: 0x26546, offset: 0x26546, size: 0x8, addend: 0x0, symName: __ZNSt3__14pairIKiNS_12basic_stringIcNS_11char_traitsIcEENS_9allocatorIcEEEEEC1B8ue170006IJRS1_EJEEENS_21piecewise_construct_tENS_5tupleIJDpT_EEENSC_IJDpT0_EEE, symObjAddr: 0xB268, symBinAddr: 0x10000D488, symSize: 0x44 }
  - { offsetInCU: 0x265AD, offset: 0x265AD, size: 0x8, addend: 0x0, symName: __ZNSt3__14pairIKiNS_12basic_stringIcNS_11char_traitsIcEENS_9allocatorIcEEEEEC1B8ue170006IJRS1_EJEJLm0EEJEEENS_21piecewise_construct_tERNS_5tupleIJDpT_EEERNSC_IJDpT0_EEENS_15__tuple_indicesIJXspT1_EEEENSL_IJXspT2_EEEE, symObjAddr: 0xB2AC, symBinAddr: 0x10000D4CC, symSize: 0x3C }
  - { offsetInCU: 0x2663D, offset: 0x2663D, size: 0x8, addend: 0x0, symName: __ZNSt3__14pairIKiNS_12basic_stringIcNS_11char_traitsIcEENS_9allocatorIcEEEEEC2B8ue170006IJRS1_EJEJLm0EEJEEENS_21piecewise_construct_tERNS_5tupleIJDpT_EEERNSC_IJDpT0_EEENS_15__tuple_indicesIJXspT1_EEEENSL_IJXspT2_EEEE, symObjAddr: 0xB2E8, symBinAddr: 0x10000D508, symSize: 0x4C }
  - { offsetInCU: 0x266CD, offset: 0x266CD, size: 0x8, addend: 0x0, symName: __ZNSt3__117__compressed_pairIPNS_11__hash_nodeINS_17__hash_value_typeIiNS_12basic_stringIcNS_11char_traitsIcEENS_9allocatorIcEEEEEEPvEENS_22__hash_node_destructorINS6_ISB_EEEEE6secondB8ue170006Ev, symObjAddr: 0xB334, symBinAddr: 0x10000D554, symSize: 0x28 }
  - { offsetInCU: 0x266F3, offset: 0x266F3, size: 0x8, addend: 0x0, symName: __ZNSt3__122__compressed_pair_elemINS_22__hash_node_destructorINS_9allocatorINS_11__hash_nodeINS_17__hash_value_typeIiNS_12basic_stringIcNS_11char_traitsIcEENS2_IcEEEEEEPvEEEEEELi1ELb0EE5__getB8ue170006Ev, symObjAddr: 0xB35C, symBinAddr: 0x10000D57C, symSize: 0x14 }
  - { offsetInCU: 0x26719, offset: 0x26719, size: 0x8, addend: 0x0, symName: __ZNSt3__117__compressed_pairImNS_22__unordered_map_hasherIiNS_17__hash_value_typeIiNS_12basic_stringIcNS_11char_traitsIcEENS_9allocatorIcEEEEEENS_4hashIiEENS_8equal_toIiEELb1EEEE5firstB8ue170006Ev, symObjAddr: 0xB370, symBinAddr: 0x10000D590, symSize: 0x24 }
  - { offsetInCU: 0x2673F, offset: 0x2673F, size: 0x8, addend: 0x0, symName: __ZNSt3__117__compressed_pairIfNS_21__unordered_map_equalIiNS_17__hash_value_typeIiNS_12basic_stringIcNS_11char_traitsIcEENS_9allocatorIcEEEEEENS_8equal_toIiEENS_4hashIiEELb1EEEE5firstB8ue170006Ev, symObjAddr: 0xB394, symBinAddr: 0x10000D5B4, symSize: 0x24 }
  - { offsetInCU: 0x26765, offset: 0x26765, size: 0x8, addend: 0x0, symName: __ZNSt3__112__hash_tableINS_17__hash_value_typeIiNS_12basic_stringIcNS_11char_traitsIcEENS_9allocatorIcEEEEEENS_22__unordered_map_hasherIiS8_NS_4hashIiEENS_8equal_toIiEELb1EEENS_21__unordered_map_equalIiS8_SD_SB_Lb1EEENS5_IS8_EEE8__rehashILb1EEEvm, symObjAddr: 0xB3B8, symBinAddr: 0x10000D5D8, symSize: 0x1A8 }
  - { offsetInCU: 0x267B5, offset: 0x267B5, size: 0x8, addend: 0x0, symName: __ZNSt3__112__hash_tableINS_17__hash_value_typeIiNS_12basic_stringIcNS_11char_traitsIcEENS_9allocatorIcEEEEEENS_22__unordered_map_hasherIiS8_NS_4hashIiEENS_8equal_toIiEELb1EEENS_21__unordered_map_equalIiS8_SD_SB_Lb1EEENS5_IS8_EEE11__do_rehashILb1EEEvm, symObjAddr: 0xB560, symBinAddr: 0x10000D780, symSize: 0x288 }
  - { offsetInCU: 0x26898, offset: 0x26898, size: 0x8, addend: 0x0, symName: __ZNSt3__110unique_ptrIA_PNS_16__hash_node_baseIPNS_11__hash_nodeINS_17__hash_value_typeIiNS_12basic_stringIcNS_11char_traitsIcEENS_9allocatorIcEEEEEEPvEEEENS_25__bucket_list_deallocatorINS7_ISF_EEEEE11get_deleterB8ue170006Ev, symObjAddr: 0xB7E8, symBinAddr: 0x10000DA08, symSize: 0x24 }
  - { offsetInCU: 0x268BE, offset: 0x268BE, size: 0x8, addend: 0x0, symName: __ZNSt3__110unique_ptrIA_PNS_16__hash_node_baseIPNS_11__hash_nodeINS_17__hash_value_typeIiNS_12basic_stringIcNS_11char_traitsIcEENS_9allocatorIcEEEEEEPvEEEENS_25__bucket_list_deallocatorINS7_ISF_EEEEE5resetB8ue170006IPSF_EENS_9enable_ifIXsr28_CheckArrayPointerConversionIT_EE5valueEvE4typeESO_, symObjAddr: 0xB80C, symBinAddr: 0x10000DA2C, symSize: 0x78 }
  - { offsetInCU: 0x2690B, offset: 0x2690B, size: 0x8, addend: 0x0, symName: __ZNSt3__116allocator_traitsINS_9allocatorIPNS_16__hash_node_baseIPNS_11__hash_nodeINS_17__hash_value_typeIiNS_12basic_stringIcNS_11char_traitsIcEENS1_IcEEEEEEPvEEEEEEE8allocateB8ue170006ERSG_m, symObjAddr: 0xB884, symBinAddr: 0x10000DAA4, symSize: 0x2C }
  - { offsetInCU: 0x2693E, offset: 0x2693E, size: 0x8, addend: 0x0, symName: __ZNSt3__19allocatorIPNS_16__hash_node_baseIPNS_11__hash_nodeINS_17__hash_value_typeIiNS_12basic_stringIcNS_11char_traitsIcEENS0_IcEEEEEEPvEEEEE8allocateB8ue170006Em, symObjAddr: 0xB8B0, symBinAddr: 0x10000DAD0, symSize: 0x58 }
  - { offsetInCU: 0x2697C, offset: 0x2697C, size: 0x8, addend: 0x0, symName: __ZNSt3__116allocator_traitsINS_9allocatorIPNS_16__hash_node_baseIPNS_11__hash_nodeINS_17__hash_value_typeIiNS_12basic_stringIcNS_11char_traitsIcEENS1_IcEEEEEEPvEEEEEEE8max_sizeB8ue170006ISG_vEEmRKSG_, symObjAddr: 0xB908, symBinAddr: 0x10000DB28, symSize: 0x24 }
  - { offsetInCU: 0x269AA, offset: 0x269AA, size: 0x8, addend: 0x0, symName: __ZNKSt3__19allocatorIPNS_16__hash_node_baseIPNS_11__hash_nodeINS_17__hash_value_typeIiNS_12basic_stringIcNS_11char_traitsIcEENS0_IcEEEEEEPvEEEEE8max_sizeB8ue170006Ev, symObjAddr: 0xB92C, symBinAddr: 0x10000DB4C, symSize: 0x14 }
  - { offsetInCU: 0x269D0, offset: 0x269D0, size: 0x8, addend: 0x0, symName: __ZNKSt3__117__compressed_pairIPNS_11__hash_nodeINS_17__hash_value_typeIiNS_12basic_stringIcNS_11char_traitsIcEENS_9allocatorIcEEEEEEPvEENS_22__hash_node_destructorINS6_ISB_EEEEE5firstB8ue170006Ev, symObjAddr: 0xB940, symBinAddr: 0x10000DB60, symSize: 0x24 }
  - { offsetInCU: 0x269F6, offset: 0x269F6, size: 0x8, addend: 0x0, symName: __ZNKSt3__122__compressed_pair_elemIPNS_11__hash_nodeINS_17__hash_value_typeIiNS_12basic_stringIcNS_11char_traitsIcEENS_9allocatorIcEEEEEEPvEELi0ELb0EE5__getB8ue170006Ev, symObjAddr: 0xB964, symBinAddr: 0x10000DB84, symSize: 0x14 }
  - { offsetInCU: 0x26A1C, offset: 0x26A1C, size: 0x8, addend: 0x0, symName: __ZNSt3__117__compressed_pairIPNS_11__hash_nodeINS_17__hash_value_typeIiNS_12basic_stringIcNS_11char_traitsIcEENS_9allocatorIcEEEEEEPvEENS_22__hash_node_destructorINS6_ISB_EEEEE5firstB8ue170006Ev, symObjAddr: 0xB978, symBinAddr: 0x10000DB98, symSize: 0x24 }
  - { offsetInCU: 0x26A42, offset: 0x26A42, size: 0x8, addend: 0x0, symName: __ZNSt3__122__compressed_pair_elemIPNS_11__hash_nodeINS_17__hash_value_typeIiNS_12basic_stringIcNS_11char_traitsIcEENS_9allocatorIcEEEEEEPvEELi0ELb0EE5__getB8ue170006Ev, symObjAddr: 0xB99C, symBinAddr: 0x10000DBBC, symSize: 0x14 }
  - { offsetInCU: 0x26A68, offset: 0x26A68, size: 0x8, addend: 0x0, symName: __ZNSt3__110unique_ptrINS_11__hash_nodeINS_17__hash_value_typeIiNS_12basic_stringIcNS_11char_traitsIcEENS_9allocatorIcEEEEEEPvEENS_22__hash_node_destructorINS6_ISB_EEEEED2B8ue170006Ev, symObjAddr: 0xB9B0, symBinAddr: 0x10000DBD0, symSize: 0x30 }
  - { offsetInCU: 0x26A92, offset: 0x26A92, size: 0x8, addend: 0x0, symName: __ZNSt3__110unique_ptrINS_11__hash_nodeINS_17__hash_value_typeIiNS_12basic_stringIcNS_11char_traitsIcEENS_9allocatorIcEEEEEEPvEENS_22__hash_node_destructorINS6_ISB_EEEEE5resetB8ue170006EPSB_, symObjAddr: 0xB9E0, symBinAddr: 0x10000DC00, symSize: 0x78 }
  - { offsetInCU: 0x26AD6, offset: 0x26AD6, size: 0x8, addend: 0x0, symName: __ZNSt3__122__hash_node_destructorINS_9allocatorINS_11__hash_nodeINS_17__hash_value_typeIiNS_12basic_stringIcNS_11char_traitsIcEENS1_IcEEEEEEPvEEEEEclB8ue170006EPSB_, symObjAddr: 0xBA58, symBinAddr: 0x10000DC78, symSize: 0x94 }
  - { offsetInCU: 0x26B0B, offset: 0x26B0B, size: 0x8, addend: 0x0, symName: __ZNSt3__115__hash_iteratorIPNS_11__hash_nodeINS_17__hash_value_typeIiNS_12basic_stringIcNS_11char_traitsIcEENS_9allocatorIcEEEEEEPvEEEC2B8ue170006EPNS_16__hash_node_baseISC_EE, symObjAddr: 0xBAEC, symBinAddr: 0x10000DD0C, symSize: 0x20 }
  - { offsetInCU: 0x26B44, offset: 0x26B44, size: 0x8, addend: 0x0, symName: __ZNSt3__14pairINS_15__hash_iteratorIPNS_11__hash_nodeINS_17__hash_value_typeIiNS_12basic_stringIcNS_11char_traitsIcEENS_9allocatorIcEEEEEEPvEEEEbEC2B8ue170006ISE_RbLSB_0EEEOT_OT0_, symObjAddr: 0xBB0C, symBinAddr: 0x10000DD2C, symSize: 0x38 }
  - { offsetInCU: 0x26BA2, offset: 0x26BA2, size: 0x8, addend: 0x0, symName: __ZNSt3__114pointer_traitsIPNS_17__hash_value_typeIiNS_12basic_stringIcNS_11char_traitsIcEENS_9allocatorIcEEEEEEE10pointer_toB8ue170006ERS8_, symObjAddr: 0xBB44, symBinAddr: 0x10000DD64, symSize: 0x14 }
  - { offsetInCU: 0x26BC5, offset: 0x26BC5, size: 0x8, addend: 0x0, symName: __ZNSt3__112basic_stringIcNS_11char_traitsIcEENS_9allocatorIcEEEC1B8ue170006EOS5_, symObjAddr: 0xBB58, symBinAddr: 0x10000DD78, symSize: 0x34 }
  - { offsetInCU: 0x26BFE, offset: 0x26BFE, size: 0x8, addend: 0x0, symName: __ZNSt3__112basic_stringIcNS_11char_traitsIcEENS_9allocatorIcEEEC2B8ue170006EOS5_, symObjAddr: 0xBB8C, symBinAddr: 0x10000DDAC, symSize: 0x48 }
  - { offsetInCU: 0x26C37, offset: 0x26C37, size: 0x8, addend: 0x0, symName: __ZNSt3__112basic_stringIcNS_11char_traitsIcEENS_9allocatorIcEEE6appendB8ue170006ERKS5_, symObjAddr: 0xBBD4, symBinAddr: 0x10000DDF4, symSize: 0x4C }
  - { offsetInCU: 0x26C6C, offset: 0x26C6C, size: 0x8, addend: 0x0, symName: __ZNSt3__112__hash_tableINS_17__hash_value_typeIiNS_12basic_stringIcNS_11char_traitsIcEENS_9allocatorIcEEEEEENS_22__unordered_map_hasherIiS8_NS_4hashIiEENS_8equal_toIiEELb1EEENS_21__unordered_map_equalIiS8_SD_SB_Lb1EEENS5_IS8_EEE5beginEv, symObjAddr: 0xBC20, symBinAddr: 0x10000DE40, symSize: 0x38 }
  - { offsetInCU: 0x26C94, offset: 0x26C94, size: 0x8, addend: 0x0, symName: __ZNSt3__119__hash_map_iteratorINS_15__hash_iteratorIPNS_11__hash_nodeINS_17__hash_value_typeIiNS_12basic_stringIcNS_11char_traitsIcEENS_9allocatorIcEEEEEEPvEEEEEC1B8ue170006ESE_, symObjAddr: 0xBC58, symBinAddr: 0x10000DE78, symSize: 0x34 }
  - { offsetInCU: 0x26CCD, offset: 0x26CCD, size: 0x8, addend: 0x0, symName: __ZNSt3__119__hash_map_iteratorINS_15__hash_iteratorIPNS_11__hash_nodeINS_17__hash_value_typeIiNS_12basic_stringIcNS_11char_traitsIcEENS_9allocatorIcEEEEEEPvEEEEEC2B8ue170006ESE_, symObjAddr: 0xBC8C, symBinAddr: 0x10000DEAC, symSize: 0x20 }
  - { offsetInCU: 0x26D06, offset: 0x26D06, size: 0x8, addend: 0x0, symName: __ZNSt3__112__hash_tableINS_17__hash_value_typeIiNS_12basic_stringIcNS_11char_traitsIcEENS_9allocatorIcEEEEEENS_22__unordered_map_hasherIiS8_NS_4hashIiEENS_8equal_toIiEELb1EEENS_21__unordered_map_equalIiS8_SD_SB_Lb1EEENS5_IS8_EEE3endEv, symObjAddr: 0xBCAC, symBinAddr: 0x10000DECC, symSize: 0x2C }
  - { offsetInCU: 0x26D2E, offset: 0x26D2E, size: 0x8, addend: 0x0, symName: __ZNSt3__115__hash_iteratorIPNS_11__hash_nodeINS_17__hash_value_typeIiNS_12basic_stringIcNS_11char_traitsIcEENS_9allocatorIcEEEEEEPvEEEppB8ue170006Ev, symObjAddr: 0xBD3C, symBinAddr: 0x10000DF5C, symSize: 0x20 }
  - { offsetInCU: 0x26D54, offset: 0x26D54, size: 0x8, addend: 0x0, symName: __ZNSt3__113basic_filebufIcNS_11char_traitsIcEEE4openERKNS_12basic_stringIcS2_NS_9allocatorIcEEEEj, symObjAddr: 0xBD5C, symBinAddr: 0x10000DF7C, symSize: 0x44 }
  - { offsetInCU: 0x26D98, offset: 0x26D98, size: 0x8, addend: 0x0, symName: __ZNSt3__112__hash_tableINS_17__hash_value_typeINS_12basic_stringIcNS_11char_traitsIcEENS_9allocatorIcEEEES7_EENS_22__unordered_map_hasherIS7_S8_NS_4hashIS7_EENS_8equal_toIS7_EELb1EEENS_21__unordered_map_equalIS7_S8_SD_SB_Lb1EEENS5_IS8_EEE25__emplace_unique_key_argsIS7_JRKNS_21piecewise_construct_tENS_5tupleIJRKS7_EEENSN_IJEEEEEENS_4pairINS_15__hash_iteratorIPNS_11__hash_nodeIS8_PvEEEEbEERKT_DpOT0_, symObjAddr: 0xBDA0, symBinAddr: 0x10000DFC0, symSize: 0x4CC }
  - { offsetInCU: 0x26EA2, offset: 0x26EA2, size: 0x8, addend: 0x0, symName: __ZNKSt3__115__hash_iteratorIPNS_11__hash_nodeINS_17__hash_value_typeINS_12basic_stringIcNS_11char_traitsIcEENS_9allocatorIcEEEES8_EEPvEEEptB8ue170006Ev, symObjAddr: 0xC298, symBinAddr: 0x10000E4B8, symSize: 0x30 }
  - { offsetInCU: 0x26EC8, offset: 0x26EC8, size: 0x8, addend: 0x0, symName: __ZNSt3__112__hash_tableINS_17__hash_value_typeINS_12basic_stringIcNS_11char_traitsIcEENS_9allocatorIcEEEES7_EENS_22__unordered_map_hasherIS7_S8_NS_4hashIS7_EENS_8equal_toIS7_EELb1EEENS_21__unordered_map_equalIS7_S8_SD_SB_Lb1EEENS5_IS8_EEE13hash_functionB8ue170006Ev, symObjAddr: 0xC2C8, symBinAddr: 0x10000E4E8, symSize: 0x28 }
  - { offsetInCU: 0x26EEE, offset: 0x26EEE, size: 0x8, addend: 0x0, symName: __ZNKSt3__122__unordered_map_hasherINS_12basic_stringIcNS_11char_traitsIcEENS_9allocatorIcEEEENS_17__hash_value_typeIS6_S6_EENS_4hashIS6_EENS_8equal_toIS6_EELb1EEclB8ue170006ERKS6_, symObjAddr: 0xC2F0, symBinAddr: 0x10000E510, symSize: 0x2C }
  - { offsetInCU: 0x26F23, offset: 0x26F23, size: 0x8, addend: 0x0, symName: __ZNKSt3__112__hash_tableINS_17__hash_value_typeINS_12basic_stringIcNS_11char_traitsIcEENS_9allocatorIcEEEES7_EENS_22__unordered_map_hasherIS7_S8_NS_4hashIS7_EENS_8equal_toIS7_EELb1EEENS_21__unordered_map_equalIS7_S8_SD_SB_Lb1EEENS5_IS8_EEE12bucket_countB8ue170006Ev, symObjAddr: 0xC31C, symBinAddr: 0x10000E53C, symSize: 0x28 }
  - { offsetInCU: 0x26F49, offset: 0x26F49, size: 0x8, addend: 0x0, symName: __ZNKSt3__110unique_ptrIA_PNS_16__hash_node_baseIPNS_11__hash_nodeINS_17__hash_value_typeINS_12basic_stringIcNS_11char_traitsIcEENS_9allocatorIcEEEES9_EEPvEEEENS_25__bucket_list_deallocatorINS7_ISF_EEEEEixB8ue170006Em, symObjAddr: 0xC344, symBinAddr: 0x10000E564, symSize: 0x34 }
  - { offsetInCU: 0x26F7E, offset: 0x26F7E, size: 0x8, addend: 0x0, symName: __ZNKSt3__116__hash_node_baseIPNS_11__hash_nodeINS_17__hash_value_typeINS_12basic_stringIcNS_11char_traitsIcEENS_9allocatorIcEEEES8_EEPvEEE6__hashB8ue170006Ev, symObjAddr: 0xC378, symBinAddr: 0x10000E598, symSize: 0x18 }
  - { offsetInCU: 0x26FA4, offset: 0x26FA4, size: 0x8, addend: 0x0, symName: __ZNSt3__112__hash_tableINS_17__hash_value_typeINS_12basic_stringIcNS_11char_traitsIcEENS_9allocatorIcEEEES7_EENS_22__unordered_map_hasherIS7_S8_NS_4hashIS7_EENS_8equal_toIS7_EELb1EEENS_21__unordered_map_equalIS7_S8_SD_SB_Lb1EEENS5_IS8_EEE6key_eqB8ue170006Ev, symObjAddr: 0xC390, symBinAddr: 0x10000E5B0, symSize: 0x28 }
  - { offsetInCU: 0x26FCA, offset: 0x26FCA, size: 0x8, addend: 0x0, symName: __ZNKSt3__121__unordered_map_equalINS_12basic_stringIcNS_11char_traitsIcEENS_9allocatorIcEEEENS_17__hash_value_typeIS6_S6_EENS_8equal_toIS6_EENS_4hashIS6_EELb1EEclB8ue170006ERKS8_RKS6_, symObjAddr: 0xC3B8, symBinAddr: 0x10000E5D8, symSize: 0x48 }
  - { offsetInCU: 0x2700E, offset: 0x2700E, size: 0x8, addend: 0x0, symName: __ZNSt3__112__hash_tableINS_17__hash_value_typeINS_12basic_stringIcNS_11char_traitsIcEENS_9allocatorIcEEEES7_EENS_22__unordered_map_hasherIS7_S8_NS_4hashIS7_EENS_8equal_toIS7_EELb1EEENS_21__unordered_map_equalIS7_S8_SD_SB_Lb1EEENS5_IS8_EEE21__construct_node_hashIRKNS_21piecewise_construct_tEJNS_5tupleIJRKS7_EEENSN_IJEEEEEENS_10unique_ptrINS_11__hash_nodeIS8_PvEENS_22__hash_node_destructorINS5_ISV_EEEEEEmOT_DpOT0_, symObjAddr: 0xC400, symBinAddr: 0x10000E620, symSize: 0x150 }
  - { offsetInCU: 0x270AA, offset: 0x270AA, size: 0x8, addend: 0x0, symName: __ZNSt3__112__hash_tableINS_17__hash_value_typeINS_12basic_stringIcNS_11char_traitsIcEENS_9allocatorIcEEEES7_EENS_22__unordered_map_hasherIS7_S8_NS_4hashIS7_EENS_8equal_toIS7_EELb1EEENS_21__unordered_map_equalIS7_S8_SD_SB_Lb1EEENS5_IS8_EEE4sizeB8ue170006Ev, symObjAddr: 0xC550, symBinAddr: 0x10000E770, symSize: 0x28 }
  - { offsetInCU: 0x270D0, offset: 0x270D0, size: 0x8, addend: 0x0, symName: __ZNSt3__112__hash_tableINS_17__hash_value_typeINS_12basic_stringIcNS_11char_traitsIcEENS_9allocatorIcEEEES7_EENS_22__unordered_map_hasherIS7_S8_NS_4hashIS7_EENS_8equal_toIS7_EELb1EEENS_21__unordered_map_equalIS7_S8_SD_SB_Lb1EEENS5_IS8_EEE15max_load_factorB8ue170006Ev, symObjAddr: 0xC578, symBinAddr: 0x10000E798, symSize: 0x28 }
  - { offsetInCU: 0x270F6, offset: 0x270F6, size: 0x8, addend: 0x0, symName: __ZNSt3__112__hash_tableINS_17__hash_value_typeINS_12basic_stringIcNS_11char_traitsIcEENS_9allocatorIcEEEES7_EENS_22__unordered_map_hasherIS7_S8_NS_4hashIS7_EENS_8equal_toIS7_EELb1EEENS_21__unordered_map_equalIS7_S8_SD_SB_Lb1EEENS5_IS8_EEE15__rehash_uniqueB8ue170006Em, symObjAddr: 0xC5A0, symBinAddr: 0x10000E7C0, symSize: 0x2C }
  - { offsetInCU: 0x2712B, offset: 0x2712B, size: 0x8, addend: 0x0, symName: __ZNSt3__116__hash_node_baseIPNS_11__hash_nodeINS_17__hash_value_typeINS_12basic_stringIcNS_11char_traitsIcEENS_9allocatorIcEEEES8_EEPvEEE5__ptrB8ue170006Ev, symObjAddr: 0xC5CC, symBinAddr: 0x10000E7EC, symSize: 0x24 }
  - { offsetInCU: 0x27151, offset: 0x27151, size: 0x8, addend: 0x0, symName: __ZNKSt3__110unique_ptrINS_11__hash_nodeINS_17__hash_value_typeINS_12basic_stringIcNS_11char_traitsIcEENS_9allocatorIcEEEES8_EEPvEENS_22__hash_node_destructorINS6_ISB_EEEEEptB8ue170006Ev, symObjAddr: 0xC5F0, symBinAddr: 0x10000E810, symSize: 0x28 }
  - { offsetInCU: 0x27177, offset: 0x27177, size: 0x8, addend: 0x0, symName: __ZNKSt3__110unique_ptrINS_11__hash_nodeINS_17__hash_value_typeINS_12basic_stringIcNS_11char_traitsIcEENS_9allocatorIcEEEES8_EEPvEENS_22__hash_node_destructorINS6_ISB_EEEEE3getB8ue170006Ev, symObjAddr: 0xC618, symBinAddr: 0x10000E838, symSize: 0x28 }
  - { offsetInCU: 0x2719D, offset: 0x2719D, size: 0x8, addend: 0x0, symName: __ZNSt3__110unique_ptrINS_11__hash_nodeINS_17__hash_value_typeINS_12basic_stringIcNS_11char_traitsIcEENS_9allocatorIcEEEES8_EEPvEENS_22__hash_node_destructorINS6_ISB_EEEEE7releaseB8ue170006Ev, symObjAddr: 0xC640, symBinAddr: 0x10000E860, symSize: 0x44 }
  - { offsetInCU: 0x271D2, offset: 0x271D2, size: 0x8, addend: 0x0, symName: __ZNSt3__110unique_ptrINS_11__hash_nodeINS_17__hash_value_typeINS_12basic_stringIcNS_11char_traitsIcEENS_9allocatorIcEEEES8_EEPvEENS_22__hash_node_destructorINS6_ISB_EEEEED1B8ue170006Ev, symObjAddr: 0xC684, symBinAddr: 0x10000E8A4, symSize: 0x2C }
  - { offsetInCU: 0x271FC, offset: 0x271FC, size: 0x8, addend: 0x0, symName: __ZNSt3__115__hash_iteratorIPNS_11__hash_nodeINS_17__hash_value_typeINS_12basic_stringIcNS_11char_traitsIcEENS_9allocatorIcEEEES8_EEPvEEEC1B8ue170006EPNS_16__hash_node_baseISC_EE, symObjAddr: 0xC6B0, symBinAddr: 0x10000E8D0, symSize: 0x34 }
  - { offsetInCU: 0x2723A, offset: 0x2723A, size: 0x8, addend: 0x0, symName: __ZNSt3__14pairINS_15__hash_iteratorIPNS_11__hash_nodeINS_17__hash_value_typeINS_12basic_stringIcNS_11char_traitsIcEENS_9allocatorIcEEEES9_EEPvEEEEbEC1B8ue170006ISE_RbLSB_0EEEOT_OT0_, symObjAddr: 0xC6E4, symBinAddr: 0x10000E904, symSize: 0x3C }
  - { offsetInCU: 0x27298, offset: 0x27298, size: 0x8, addend: 0x0, symName: __ZNSt3__117__compressed_pairImNS_22__unordered_map_hasherINS_12basic_stringIcNS_11char_traitsIcEENS_9allocatorIcEEEENS_17__hash_value_typeIS7_S7_EENS_4hashIS7_EENS_8equal_toIS7_EELb1EEEE6secondB8ue170006Ev, symObjAddr: 0xC720, symBinAddr: 0x10000E940, symSize: 0x24 }
  - { offsetInCU: 0x272BE, offset: 0x272BE, size: 0x8, addend: 0x0, symName: __ZNSt3__122__compressed_pair_elemINS_22__unordered_map_hasherINS_12basic_stringIcNS_11char_traitsIcEENS_9allocatorIcEEEENS_17__hash_value_typeIS7_S7_EENS_4hashIS7_EENS_8equal_toIS7_EELb1EEELi1ELb1EE5__getB8ue170006Ev, symObjAddr: 0xC744, symBinAddr: 0x10000E964, symSize: 0x14 }
  - { offsetInCU: 0x272E4, offset: 0x272E4, size: 0x8, addend: 0x0, symName: __ZNKSt3__113__string_hashIcNS_9allocatorIcEEEclB8ue170006ERKNS_12basic_stringIcNS_11char_traitsIcEES2_EE, symObjAddr: 0xC758, symBinAddr: 0x10000E978, symSize: 0x64 }
  - { offsetInCU: 0x27319, offset: 0x27319, size: 0x8, addend: 0x0, symName: __ZNKSt3__121__murmur2_or_cityhashImLm64EEclB8ue170006EPKvm, symObjAddr: 0xC7F8, symBinAddr: 0x10000EA18, symSize: 0x410 }
  - { offsetInCU: 0x273B3, offset: 0x273B3, size: 0x8, addend: 0x0, symName: __ZNSt3__121__murmur2_or_cityhashImLm64EE18__hash_len_0_to_16B8ue170006EPKcm, symObjAddr: 0xCC08, symBinAddr: 0x10000EE28, symSize: 0x1C0 }
  - { offsetInCU: 0x2748C, offset: 0x2748C, size: 0x8, addend: 0x0, symName: __ZNSt3__121__murmur2_or_cityhashImLm64EE19__hash_len_17_to_32B8ue170006EPKcm, symObjAddr: 0xCDC8, symBinAddr: 0x10000EFE8, symSize: 0x130 }
  - { offsetInCU: 0x274F5, offset: 0x274F5, size: 0x8, addend: 0x0, symName: __ZNSt3__121__murmur2_or_cityhashImLm64EE19__hash_len_33_to_64B8ue170006EPKcm, symObjAddr: 0xCEF8, symBinAddr: 0x10000F118, symSize: 0x2B8 }
  - { offsetInCU: 0x275AA, offset: 0x275AA, size: 0x8, addend: 0x0, symName: __ZNSt3__121__murmur2_or_cityhashImLm64EE13__hash_len_16B8ue170006Emm, symObjAddr: 0xD1D0, symBinAddr: 0x10000F3F0, symSize: 0x80 }
  - { offsetInCU: 0x27605, offset: 0x27605, size: 0x8, addend: 0x0, symName: __ZNSt3__121__murmur2_or_cityhashImLm64EE29__weak_hash_len_32_with_seedsB8ue170006EPKcmm, symObjAddr: 0xD250, symBinAddr: 0x10000F470, symSize: 0x88 }
  - { offsetInCU: 0x27644, offset: 0x27644, size: 0x8, addend: 0x0, symName: __ZNSt3__121__murmur2_or_cityhashImLm64EE8__rotateB8ue170006Emi, symObjAddr: 0xD2D8, symBinAddr: 0x10000F4F8, symSize: 0x64 }
  - { offsetInCU: 0x27675, offset: 0x27675, size: 0x8, addend: 0x0, symName: __ZNSt3__14pairImmEaSB8ue170006EOS1_, symObjAddr: 0xD33C, symBinAddr: 0x10000F55C, symSize: 0x30 }
  - { offsetInCU: 0x276AA, offset: 0x276AA, size: 0x8, addend: 0x0, symName: __ZNSt3__121__murmur2_or_cityhashImLm64EE11__shift_mixB8ue170006Em, symObjAddr: 0xD3A8, symBinAddr: 0x10000F5C8, symSize: 0x1C }
  - { offsetInCU: 0x276CD, offset: 0x276CD, size: 0x8, addend: 0x0, symName: __ZNSt3__121__murmur2_or_cityhashImLm64EE22__rotate_by_at_least_1B8ue170006Emi, symObjAddr: 0xD3C4, symBinAddr: 0x10000F5E4, symSize: 0x38 }
  - { offsetInCU: 0x276FE, offset: 0x276FE, size: 0x8, addend: 0x0, symName: __ZNSt3__121__murmur2_or_cityhashImLm64EE29__weak_hash_len_32_with_seedsB8ue170006Emmmmmm, symObjAddr: 0xD41C, symBinAddr: 0x10000F63C, symSize: 0xD8 }
  - { offsetInCU: 0x2777A, offset: 0x2777A, size: 0x8, addend: 0x0, symName: __ZNSt3__14pairImmEC1B8ue170006ImmLPv0EEEOT_OT0_, symObjAddr: 0xD4F4, symBinAddr: 0x10000F714, symSize: 0x3C }
  - { offsetInCU: 0x277D8, offset: 0x277D8, size: 0x8, addend: 0x0, symName: __ZNSt3__14pairImmEC2B8ue170006ImmLPv0EEEOT_OT0_, symObjAddr: 0xD530, symBinAddr: 0x10000F750, symSize: 0x34 }
  - { offsetInCU: 0x27836, offset: 0x27836, size: 0x8, addend: 0x0, symName: __ZNKSt3__110unique_ptrIA_PNS_16__hash_node_baseIPNS_11__hash_nodeINS_17__hash_value_typeINS_12basic_stringIcNS_11char_traitsIcEENS_9allocatorIcEEEES9_EEPvEEEENS_25__bucket_list_deallocatorINS7_ISF_EEEEE11get_deleterB8ue170006Ev, symObjAddr: 0xD564, symBinAddr: 0x10000F784, symSize: 0x24 }
  - { offsetInCU: 0x2785C, offset: 0x2785C, size: 0x8, addend: 0x0, symName: __ZNKSt3__125__bucket_list_deallocatorINS_9allocatorIPNS_16__hash_node_baseIPNS_11__hash_nodeINS_17__hash_value_typeINS_12basic_stringIcNS_11char_traitsIcEENS1_IcEEEES9_EEPvEEEEEEE4sizeB8ue170006Ev, symObjAddr: 0xD588, symBinAddr: 0x10000F7A8, symSize: 0x28 }
  - { offsetInCU: 0x27882, offset: 0x27882, size: 0x8, addend: 0x0, symName: __ZNKSt3__117__compressed_pairIPPNS_16__hash_node_baseIPNS_11__hash_nodeINS_17__hash_value_typeINS_12basic_stringIcNS_11char_traitsIcEENS_9allocatorIcEEEES9_EEPvEEEENS_25__bucket_list_deallocatorINS7_ISF_EEEEE6secondB8ue170006Ev, symObjAddr: 0xD5B0, symBinAddr: 0x10000F7D0, symSize: 0x28 }
  - { offsetInCU: 0x278A8, offset: 0x278A8, size: 0x8, addend: 0x0, symName: __ZNKSt3__122__compressed_pair_elemINS_25__bucket_list_deallocatorINS_9allocatorIPNS_16__hash_node_baseIPNS_11__hash_nodeINS_17__hash_value_typeINS_12basic_stringIcNS_11char_traitsIcEENS2_IcEEEESA_EEPvEEEEEEEELi1ELb0EE5__getB8ue170006Ev, symObjAddr: 0xD5D8, symBinAddr: 0x10000F7F8, symSize: 0x14 }
  - { offsetInCU: 0x278CE, offset: 0x278CE, size: 0x8, addend: 0x0, symName: __ZNKSt3__117__compressed_pairImNS_9allocatorIPNS_16__hash_node_baseIPNS_11__hash_nodeINS_17__hash_value_typeINS_12basic_stringIcNS_11char_traitsIcEENS1_IcEEEES9_EEPvEEEEEEE5firstB8ue170006Ev, symObjAddr: 0xD5EC, symBinAddr: 0x10000F80C, symSize: 0x24 }
  - { offsetInCU: 0x278F4, offset: 0x278F4, size: 0x8, addend: 0x0, symName: __ZNKSt3__117__compressed_pairIPPNS_16__hash_node_baseIPNS_11__hash_nodeINS_17__hash_value_typeINS_12basic_stringIcNS_11char_traitsIcEENS_9allocatorIcEEEES9_EEPvEEEENS_25__bucket_list_deallocatorINS7_ISF_EEEEE5firstB8ue170006Ev, symObjAddr: 0xD610, symBinAddr: 0x10000F830, symSize: 0x24 }
  - { offsetInCU: 0x2791A, offset: 0x2791A, size: 0x8, addend: 0x0, symName: __ZNKSt3__122__compressed_pair_elemIPPNS_16__hash_node_baseIPNS_11__hash_nodeINS_17__hash_value_typeINS_12basic_stringIcNS_11char_traitsIcEENS_9allocatorIcEEEES9_EEPvEEEELi0ELb0EE5__getB8ue170006Ev, symObjAddr: 0xD634, symBinAddr: 0x10000F854, symSize: 0x14 }
  - { offsetInCU: 0x27940, offset: 0x27940, size: 0x8, addend: 0x0, symName: __ZNSt3__117__compressed_pairIfNS_21__unordered_map_equalINS_12basic_stringIcNS_11char_traitsIcEENS_9allocatorIcEEEENS_17__hash_value_typeIS7_S7_EENS_8equal_toIS7_EENS_4hashIS7_EELb1EEEE6secondB8ue170006Ev, symObjAddr: 0xD648, symBinAddr: 0x10000F868, symSize: 0x24 }
  - { offsetInCU: 0x27966, offset: 0x27966, size: 0x8, addend: 0x0, symName: __ZNSt3__122__compressed_pair_elemINS_21__unordered_map_equalINS_12basic_stringIcNS_11char_traitsIcEENS_9allocatorIcEEEENS_17__hash_value_typeIS7_S7_EENS_8equal_toIS7_EENS_4hashIS7_EELb1EEELi1ELb1EE5__getB8ue170006Ev, symObjAddr: 0xD66C, symBinAddr: 0x10000F88C, symSize: 0x14 }
  - { offsetInCU: 0x2798C, offset: 0x2798C, size: 0x8, addend: 0x0, symName: __ZNKSt3__18equal_toINS_12basic_stringIcNS_11char_traitsIcEENS_9allocatorIcEEEEEclB8ue170006ERKS6_S9_, symObjAddr: 0xD680, symBinAddr: 0x10000F8A0, symSize: 0x34 }
  - { offsetInCU: 0x279D0, offset: 0x279D0, size: 0x8, addend: 0x0, symName: __ZNKSt3__117__hash_value_typeINS_12basic_stringIcNS_11char_traitsIcEENS_9allocatorIcEEEES6_E11__get_valueB8ue170006Ev, symObjAddr: 0xD6B4, symBinAddr: 0x10000F8D4, symSize: 0x24 }
  - { offsetInCU: 0x279F6, offset: 0x279F6, size: 0x8, addend: 0x0, symName: __ZNSt3__116allocator_traitsINS_9allocatorINS_11__hash_nodeINS_17__hash_value_typeINS_12basic_stringIcNS_11char_traitsIcEENS1_IcEEEES8_EEPvEEEEE8allocateB8ue170006ERSC_m, symObjAddr: 0xD710, symBinAddr: 0x10000F930, symSize: 0x2C }
  - { offsetInCU: 0x27A29, offset: 0x27A29, size: 0x8, addend: 0x0, symName: __ZNSt3__122__hash_node_destructorINS_9allocatorINS_11__hash_nodeINS_17__hash_value_typeINS_12basic_stringIcNS_11char_traitsIcEENS1_IcEEEES8_EEPvEEEEEC1B8ue170006ERSC_b, symObjAddr: 0xD73C, symBinAddr: 0x10000F95C, symSize: 0x48 }
  - { offsetInCU: 0x27A76, offset: 0x27A76, size: 0x8, addend: 0x0, symName: __ZNSt3__110unique_ptrINS_11__hash_nodeINS_17__hash_value_typeINS_12basic_stringIcNS_11char_traitsIcEENS_9allocatorIcEEEES8_EEPvEENS_22__hash_node_destructorINS6_ISB_EEEEEC1B8ue170006ILb1EvEEPSB_NS_16__dependent_typeINS_27__unique_ptr_deleter_sfinaeISE_EEXT_EE20__good_rval_ref_typeE, symObjAddr: 0xD784, symBinAddr: 0x10000F9A4, symSize: 0x3C }
  - { offsetInCU: 0x27AC7, offset: 0x27AC7, size: 0x8, addend: 0x0, symName: __ZNSt3__116allocator_traitsINS_9allocatorINS_11__hash_nodeINS_17__hash_value_typeINS_12basic_stringIcNS_11char_traitsIcEENS1_IcEEEES8_EEPvEEEEE9constructB8ue170006INS_4pairIKS8_S8_EEJRKNS_21piecewise_construct_tENS_5tupleIJRSG_EEENSL_IJEEEEvEEvRSC_PT_DpOT0_, symObjAddr: 0xD7C0, symBinAddr: 0x10000F9E0, symSize: 0x44 }
  - { offsetInCU: 0x27B46, offset: 0x27B46, size: 0x8, addend: 0x0, symName: __ZNSt3__110unique_ptrINS_11__hash_nodeINS_17__hash_value_typeINS_12basic_stringIcNS_11char_traitsIcEENS_9allocatorIcEEEES8_EEPvEENS_22__hash_node_destructorINS6_ISB_EEEEE11get_deleterB8ue170006Ev, symObjAddr: 0xD804, symBinAddr: 0x10000FA24, symSize: 0x24 }
  - { offsetInCU: 0x27B6C, offset: 0x27B6C, size: 0x8, addend: 0x0, symName: __ZNSt3__19allocatorINS_11__hash_nodeINS_17__hash_value_typeINS_12basic_stringIcNS_11char_traitsIcEENS0_IcEEEES7_EEPvEEE8allocateB8ue170006Em, symObjAddr: 0xD828, symBinAddr: 0x10000FA48, symSize: 0x58 }
  - { offsetInCU: 0x27BAA, offset: 0x27BAA, size: 0x8, addend: 0x0, symName: __ZNSt3__116allocator_traitsINS_9allocatorINS_11__hash_nodeINS_17__hash_value_typeINS_12basic_stringIcNS_11char_traitsIcEENS1_IcEEEES8_EEPvEEEEE8max_sizeB8ue170006ISC_vEEmRKSC_, symObjAddr: 0xD880, symBinAddr: 0x10000FAA0, symSize: 0x24 }
  - { offsetInCU: 0x27BD8, offset: 0x27BD8, size: 0x8, addend: 0x0, symName: __ZNKSt3__19allocatorINS_11__hash_nodeINS_17__hash_value_typeINS_12basic_stringIcNS_11char_traitsIcEENS0_IcEEEES7_EEPvEEE8max_sizeB8ue170006Ev, symObjAddr: 0xD8A4, symBinAddr: 0x10000FAC4, symSize: 0x14 }
  - { offsetInCU: 0x27BFE, offset: 0x27BFE, size: 0x8, addend: 0x0, symName: __ZNSt3__122__hash_node_destructorINS_9allocatorINS_11__hash_nodeINS_17__hash_value_typeINS_12basic_stringIcNS_11char_traitsIcEENS1_IcEEEES8_EEPvEEEEEC2B8ue170006ERSC_b, symObjAddr: 0xD8B8, symBinAddr: 0x10000FAD8, symSize: 0x38 }
  - { offsetInCU: 0x27C46, offset: 0x27C46, size: 0x8, addend: 0x0, symName: __ZNSt3__110unique_ptrINS_11__hash_nodeINS_17__hash_value_typeINS_12basic_stringIcNS_11char_traitsIcEENS_9allocatorIcEEEES8_EEPvEENS_22__hash_node_destructorINS6_ISB_EEEEEC2B8ue170006ILb1EvEEPSB_NS_16__dependent_typeINS_27__unique_ptr_deleter_sfinaeISE_EEXT_EE20__good_rval_ref_typeE, symObjAddr: 0xD8F0, symBinAddr: 0x10000FB10, symSize: 0x48 }
  - { offsetInCU: 0x27C97, offset: 0x27C97, size: 0x8, addend: 0x0, symName: __ZNSt3__117__compressed_pairIPNS_11__hash_nodeINS_17__hash_value_typeINS_12basic_stringIcNS_11char_traitsIcEENS_9allocatorIcEEEES8_EEPvEENS_22__hash_node_destructorINS6_ISB_EEEEEC1B8ue170006IRSC_SF_EEOT_OT0_, symObjAddr: 0xD938, symBinAddr: 0x10000FB58, symSize: 0x3C }
  - { offsetInCU: 0x27CEF, offset: 0x27CEF, size: 0x8, addend: 0x0, symName: __ZNSt3__117__compressed_pairIPNS_11__hash_nodeINS_17__hash_value_typeINS_12basic_stringIcNS_11char_traitsIcEENS_9allocatorIcEEEES8_EEPvEENS_22__hash_node_destructorINS6_ISB_EEEEEC2B8ue170006IRSC_SF_EEOT_OT0_, symObjAddr: 0xD974, symBinAddr: 0x10000FB94, symSize: 0x48 }
  - { offsetInCU: 0x27D47, offset: 0x27D47, size: 0x8, addend: 0x0, symName: __ZNSt3__122__compressed_pair_elemIPNS_11__hash_nodeINS_17__hash_value_typeINS_12basic_stringIcNS_11char_traitsIcEENS_9allocatorIcEEEES8_EEPvEELi0ELb0EEC2B8ue170006IRSC_vEEOT_, symObjAddr: 0xD9BC, symBinAddr: 0x10000FBDC, symSize: 0x24 }
  - { offsetInCU: 0x27D89, offset: 0x27D89, size: 0x8, addend: 0x0, symName: __ZNSt3__122__compressed_pair_elemINS_22__hash_node_destructorINS_9allocatorINS_11__hash_nodeINS_17__hash_value_typeINS_12basic_stringIcNS_11char_traitsIcEENS2_IcEEEES9_EEPvEEEEEELi1ELb0EEC2B8ue170006ISE_vEEOT_, symObjAddr: 0xD9E0, symBinAddr: 0x10000FC00, symSize: 0x24 }
  - { offsetInCU: 0x27DCB, offset: 0x27DCB, size: 0x8, addend: 0x0, symName: __ZNSt3__19allocatorINS_11__hash_nodeINS_17__hash_value_typeINS_12basic_stringIcNS_11char_traitsIcEENS0_IcEEEES7_EEPvEEE9constructB8ue170006INS_4pairIKS7_S7_EEJRKNS_21piecewise_construct_tENS_5tupleIJRSE_EEENSJ_IJEEEEEEvPT_DpOT0_, symObjAddr: 0xDA04, symBinAddr: 0x10000FC24, symSize: 0x44 }
  - { offsetInCU: 0x27E47, offset: 0x27E47, size: 0x8, addend: 0x0, symName: __ZNSt3__14pairIKNS_12basic_stringIcNS_11char_traitsIcEENS_9allocatorIcEEEES6_EC1B8ue170006IJRS7_EJEEENS_21piecewise_construct_tENS_5tupleIJDpT_EEENSC_IJDpT0_EEE, symObjAddr: 0xDA48, symBinAddr: 0x10000FC68, symSize: 0x3C }
  - { offsetInCU: 0x27EAE, offset: 0x27EAE, size: 0x8, addend: 0x0, symName: __ZNSt3__14pairIKNS_12basic_stringIcNS_11char_traitsIcEENS_9allocatorIcEEEES6_EC1B8ue170006IJRS7_EJEJLm0EEJEEENS_21piecewise_construct_tERNS_5tupleIJDpT_EEERNSC_IJDpT0_EEENS_15__tuple_indicesIJXspT1_EEEENSL_IJXspT2_EEEE, symObjAddr: 0xDA84, symBinAddr: 0x10000FCA4, symSize: 0x3C }
  - { offsetInCU: 0x27F3E, offset: 0x27F3E, size: 0x8, addend: 0x0, symName: __ZNSt3__14pairIKNS_12basic_stringIcNS_11char_traitsIcEENS_9allocatorIcEEEES6_EC2B8ue170006IJRS7_EJEJLm0EEJEEENS_21piecewise_construct_tERNS_5tupleIJDpT_EEERNSC_IJDpT0_EEENS_15__tuple_indicesIJXspT1_EEEENSL_IJXspT2_EEEE, symObjAddr: 0xDAC0, symBinAddr: 0x10000FCE0, symSize: 0x50 }
  - { offsetInCU: 0x27FCE, offset: 0x27FCE, size: 0x8, addend: 0x0, symName: __ZNSt3__112__tuple_leafILm0ERKNS_12basic_stringIcNS_11char_traitsIcEENS_9allocatorIcEEEELb0EE3getB8ue170006Ev, symObjAddr: 0xDB34, symBinAddr: 0x10000FD54, symSize: 0x18 }
  - { offsetInCU: 0x27FF4, offset: 0x27FF4, size: 0x8, addend: 0x0, symName: __ZNSt3__117__compressed_pairIPNS_11__hash_nodeINS_17__hash_value_typeINS_12basic_stringIcNS_11char_traitsIcEENS_9allocatorIcEEEES8_EEPvEENS_22__hash_node_destructorINS6_ISB_EEEEE6secondB8ue170006Ev, symObjAddr: 0xDB4C, symBinAddr: 0x10000FD6C, symSize: 0x28 }
  - { offsetInCU: 0x2801A, offset: 0x2801A, size: 0x8, addend: 0x0, symName: __ZNSt3__122__compressed_pair_elemINS_22__hash_node_destructorINS_9allocatorINS_11__hash_nodeINS_17__hash_value_typeINS_12basic_stringIcNS_11char_traitsIcEENS2_IcEEEES9_EEPvEEEEEELi1ELb0EE5__getB8ue170006Ev, symObjAddr: 0xDB74, symBinAddr: 0x10000FD94, symSize: 0x14 }
  - { offsetInCU: 0x28040, offset: 0x28040, size: 0x8, addend: 0x0, symName: __ZNSt3__117__compressed_pairImNS_22__unordered_map_hasherINS_12basic_stringIcNS_11char_traitsIcEENS_9allocatorIcEEEENS_17__hash_value_typeIS7_S7_EENS_4hashIS7_EENS_8equal_toIS7_EELb1EEEE5firstB8ue170006Ev, symObjAddr: 0xDB88, symBinAddr: 0x10000FDA8, symSize: 0x24 }
  - { offsetInCU: 0x28066, offset: 0x28066, size: 0x8, addend: 0x0, symName: __ZNSt3__117__compressed_pairIfNS_21__unordered_map_equalINS_12basic_stringIcNS_11char_traitsIcEENS_9allocatorIcEEEENS_17__hash_value_typeIS7_S7_EENS_8equal_toIS7_EENS_4hashIS7_EELb1EEEE5firstB8ue170006Ev, symObjAddr: 0xDBAC, symBinAddr: 0x10000FDCC, symSize: 0x24 }
  - { offsetInCU: 0x2808C, offset: 0x2808C, size: 0x8, addend: 0x0, symName: __ZNSt3__112__hash_tableINS_17__hash_value_typeINS_12basic_stringIcNS_11char_traitsIcEENS_9allocatorIcEEEES7_EENS_22__unordered_map_hasherIS7_S8_NS_4hashIS7_EENS_8equal_toIS7_EELb1EEENS_21__unordered_map_equalIS7_S8_SD_SB_Lb1EEENS5_IS8_EEE8__rehashILb1EEEvm, symObjAddr: 0xDBD0, symBinAddr: 0x10000FDF0, symSize: 0x1A8 }
  - { offsetInCU: 0x280DC, offset: 0x280DC, size: 0x8, addend: 0x0, symName: __ZNSt3__112__hash_tableINS_17__hash_value_typeINS_12basic_stringIcNS_11char_traitsIcEENS_9allocatorIcEEEES7_EENS_22__unordered_map_hasherIS7_S8_NS_4hashIS7_EENS_8equal_toIS7_EELb1EEENS_21__unordered_map_equalIS7_S8_SD_SB_Lb1EEENS5_IS8_EEE11__do_rehashILb1EEEvm, symObjAddr: 0xDD78, symBinAddr: 0x10000FF98, symSize: 0x288 }
  - { offsetInCU: 0x281BF, offset: 0x281BF, size: 0x8, addend: 0x0, symName: __ZNSt3__110unique_ptrIA_PNS_16__hash_node_baseIPNS_11__hash_nodeINS_17__hash_value_typeINS_12basic_stringIcNS_11char_traitsIcEENS_9allocatorIcEEEES9_EEPvEEEENS_25__bucket_list_deallocatorINS7_ISF_EEEEE11get_deleterB8ue170006Ev, symObjAddr: 0xE000, symBinAddr: 0x100010220, symSize: 0x24 }
  - { offsetInCU: 0x281E5, offset: 0x281E5, size: 0x8, addend: 0x0, symName: __ZNSt3__110unique_ptrIA_PNS_16__hash_node_baseIPNS_11__hash_nodeINS_17__hash_value_typeINS_12basic_stringIcNS_11char_traitsIcEENS_9allocatorIcEEEES9_EEPvEEEENS_25__bucket_list_deallocatorINS7_ISF_EEEEE5resetB8ue170006IPSF_EENS_9enable_ifIXsr28_CheckArrayPointerConversionIT_EE5valueEvE4typeESO_, symObjAddr: 0xE024, symBinAddr: 0x100010244, symSize: 0x78 }
  - { offsetInCU: 0x28232, offset: 0x28232, size: 0x8, addend: 0x0, symName: __ZNSt3__116allocator_traitsINS_9allocatorIPNS_16__hash_node_baseIPNS_11__hash_nodeINS_17__hash_value_typeINS_12basic_stringIcNS_11char_traitsIcEENS1_IcEEEES9_EEPvEEEEEEE8allocateB8ue170006ERSG_m, symObjAddr: 0xE09C, symBinAddr: 0x1000102BC, symSize: 0x2C }
  - { offsetInCU: 0x28265, offset: 0x28265, size: 0x8, addend: 0x0, symName: __ZNSt3__19allocatorIPNS_16__hash_node_baseIPNS_11__hash_nodeINS_17__hash_value_typeINS_12basic_stringIcNS_11char_traitsIcEENS0_IcEEEES8_EEPvEEEEE8allocateB8ue170006Em, symObjAddr: 0xE0C8, symBinAddr: 0x1000102E8, symSize: 0x58 }
  - { offsetInCU: 0x282A3, offset: 0x282A3, size: 0x8, addend: 0x0, symName: __ZNSt3__116allocator_traitsINS_9allocatorIPNS_16__hash_node_baseIPNS_11__hash_nodeINS_17__hash_value_typeINS_12basic_stringIcNS_11char_traitsIcEENS1_IcEEEES9_EEPvEEEEEEE8max_sizeB8ue170006ISG_vEEmRKSG_, symObjAddr: 0xE120, symBinAddr: 0x100010340, symSize: 0x24 }
  - { offsetInCU: 0x282D1, offset: 0x282D1, size: 0x8, addend: 0x0, symName: __ZNKSt3__19allocatorIPNS_16__hash_node_baseIPNS_11__hash_nodeINS_17__hash_value_typeINS_12basic_stringIcNS_11char_traitsIcEENS0_IcEEEES8_EEPvEEEEE8max_sizeB8ue170006Ev, symObjAddr: 0xE144, symBinAddr: 0x100010364, symSize: 0x14 }
  - { offsetInCU: 0x282F7, offset: 0x282F7, size: 0x8, addend: 0x0, symName: __ZNKSt3__117__compressed_pairIPNS_11__hash_nodeINS_17__hash_value_typeINS_12basic_stringIcNS_11char_traitsIcEENS_9allocatorIcEEEES8_EEPvEENS_22__hash_node_destructorINS6_ISB_EEEEE5firstB8ue170006Ev, symObjAddr: 0xE158, symBinAddr: 0x100010378, symSize: 0x24 }
  - { offsetInCU: 0x2831D, offset: 0x2831D, size: 0x8, addend: 0x0, symName: __ZNKSt3__122__compressed_pair_elemIPNS_11__hash_nodeINS_17__hash_value_typeINS_12basic_stringIcNS_11char_traitsIcEENS_9allocatorIcEEEES8_EEPvEELi0ELb0EE5__getB8ue170006Ev, symObjAddr: 0xE17C, symBinAddr: 0x10001039C, symSize: 0x14 }
  - { offsetInCU: 0x28343, offset: 0x28343, size: 0x8, addend: 0x0, symName: __ZNSt3__117__compressed_pairIPNS_11__hash_nodeINS_17__hash_value_typeINS_12basic_stringIcNS_11char_traitsIcEENS_9allocatorIcEEEES8_EEPvEENS_22__hash_node_destructorINS6_ISB_EEEEE5firstB8ue170006Ev, symObjAddr: 0xE190, symBinAddr: 0x1000103B0, symSize: 0x24 }
  - { offsetInCU: 0x28369, offset: 0x28369, size: 0x8, addend: 0x0, symName: __ZNSt3__122__compressed_pair_elemIPNS_11__hash_nodeINS_17__hash_value_typeINS_12basic_stringIcNS_11char_traitsIcEENS_9allocatorIcEEEES8_EEPvEELi0ELb0EE5__getB8ue170006Ev, symObjAddr: 0xE1B4, symBinAddr: 0x1000103D4, symSize: 0x14 }
  - { offsetInCU: 0x2838F, offset: 0x2838F, size: 0x8, addend: 0x0, symName: __ZNSt3__110unique_ptrINS_11__hash_nodeINS_17__hash_value_typeINS_12basic_stringIcNS_11char_traitsIcEENS_9allocatorIcEEEES8_EEPvEENS_22__hash_node_destructorINS6_ISB_EEEEED2B8ue170006Ev, symObjAddr: 0xE1C8, symBinAddr: 0x1000103E8, symSize: 0x30 }
  - { offsetInCU: 0x283B9, offset: 0x283B9, size: 0x8, addend: 0x0, symName: __ZNSt3__110unique_ptrINS_11__hash_nodeINS_17__hash_value_typeINS_12basic_stringIcNS_11char_traitsIcEENS_9allocatorIcEEEES8_EEPvEENS_22__hash_node_destructorINS6_ISB_EEEEE5resetB8ue170006EPSB_, symObjAddr: 0xE1F8, symBinAddr: 0x100010418, symSize: 0x78 }
  - { offsetInCU: 0x283FD, offset: 0x283FD, size: 0x8, addend: 0x0, symName: __ZNSt3__122__hash_node_destructorINS_9allocatorINS_11__hash_nodeINS_17__hash_value_typeINS_12basic_stringIcNS_11char_traitsIcEENS1_IcEEEES8_EEPvEEEEEclB8ue170006EPSB_, symObjAddr: 0xE270, symBinAddr: 0x100010490, symSize: 0x94 }
  - { offsetInCU: 0x28432, offset: 0x28432, size: 0x8, addend: 0x0, symName: __ZNSt3__115__hash_iteratorIPNS_11__hash_nodeINS_17__hash_value_typeINS_12basic_stringIcNS_11char_traitsIcEENS_9allocatorIcEEEES8_EEPvEEEC2B8ue170006EPNS_16__hash_node_baseISC_EE, symObjAddr: 0xE304, symBinAddr: 0x100010524, symSize: 0x20 }
  - { offsetInCU: 0x2846B, offset: 0x2846B, size: 0x8, addend: 0x0, symName: __ZNSt3__14pairINS_15__hash_iteratorIPNS_11__hash_nodeINS_17__hash_value_typeINS_12basic_stringIcNS_11char_traitsIcEENS_9allocatorIcEEEES9_EEPvEEEEbEC2B8ue170006ISE_RbLSB_0EEEOT_OT0_, symObjAddr: 0xE324, symBinAddr: 0x100010544, symSize: 0x38 }
  - { offsetInCU: 0x284C9, offset: 0x284C9, size: 0x8, addend: 0x0, symName: __ZNSt3__15tupleIJRKNS_12basic_stringIcNS_11char_traitsIcEENS_9allocatorIcEEEEEEC1B8ue170006INS_4_AndELi0EEES8_, symObjAddr: 0xE35C, symBinAddr: 0x10001057C, symSize: 0x34 }
  - { offsetInCU: 0x28511, offset: 0x28511, size: 0x8, addend: 0x0, symName: __ZNSt3__15tupleIJRKNS_12basic_stringIcNS_11char_traitsIcEENS_9allocatorIcEEEEEEC2B8ue170006INS_4_AndELi0EEES8_, symObjAddr: 0xE390, symBinAddr: 0x1000105B0, symSize: 0x34 }
  - { offsetInCU: 0x28559, offset: 0x28559, size: 0x8, addend: 0x0, symName: __ZNSt3__112__tuple_implINS_15__tuple_indicesIJLm0EEEEJRKNS_12basic_stringIcNS_11char_traitsIcEENS_9allocatorIcEEEEEEC1B8ue170006IJLm0EEJSA_EJEJEJSA_EEENS1_IJXspT_EEEENS_13__tuple_typesIJDpT0_EEENS1_IJXspT1_EEEENSE_IJDpT2_EEEDpOT3_, symObjAddr: 0xE3C4, symBinAddr: 0x1000105E4, symSize: 0x34 }
  - { offsetInCU: 0x285EE, offset: 0x285EE, size: 0x8, addend: 0x0, symName: __ZNSt3__112__tuple_implINS_15__tuple_indicesIJLm0EEEEJRKNS_12basic_stringIcNS_11char_traitsIcEENS_9allocatorIcEEEEEEC2B8ue170006IJLm0EEJSA_EJEJEJSA_EEENS1_IJXspT_EEEENS_13__tuple_typesIJDpT0_EEENS1_IJXspT1_EEEENSE_IJDpT2_EEEDpOT3_, symObjAddr: 0xE3F8, symBinAddr: 0x100010618, symSize: 0x34 }
  - { offsetInCU: 0x28683, offset: 0x28683, size: 0x8, addend: 0x0, symName: __ZNSt3__112__tuple_leafILm0ERKNS_12basic_stringIcNS_11char_traitsIcEENS_9allocatorIcEEEELb0EEC2B8ue170006IS8_vEEOT_, symObjAddr: 0xE42C, symBinAddr: 0x10001064C, symSize: 0x20 }
  - { offsetInCU: 0x286C6, offset: 0x286C6, size: 0x8, addend: 0x0, symName: __ZNSt3__114pointer_traitsIPNS_17__hash_value_typeINS_12basic_stringIcNS_11char_traitsIcEENS_9allocatorIcEEEES7_EEE10pointer_toB8ue170006ERS8_, symObjAddr: 0xE44C, symBinAddr: 0x10001066C, symSize: 0x14 }
  - { offsetInCU: 0x286E9, offset: 0x286E9, size: 0x8, addend: 0x0, symName: __ZNSt3__112__hash_tableINS_17__hash_value_typeINS_12basic_stringIcNS_11char_traitsIcEENS_9allocatorIcEEEES7_EENS_22__unordered_map_hasherIS7_S8_NS_4hashIS7_EENS_8equal_toIS7_EELb1EEENS_21__unordered_map_equalIS7_S8_SD_SB_Lb1EEENS5_IS8_EEE4findIS7_EENS_15__hash_iteratorIPNS_11__hash_nodeIS8_PvEEEERKT_, symObjAddr: 0xE460, symBinAddr: 0x100010680, symSize: 0x1B0 }
  - { offsetInCU: 0x28773, offset: 0x28773, size: 0x8, addend: 0x0, symName: __ZNSt3__119__hash_map_iteratorINS_15__hash_iteratorIPNS_11__hash_nodeINS_17__hash_value_typeINS_12basic_stringIcNS_11char_traitsIcEENS_9allocatorIcEEEES9_EEPvEEEEEC1B8ue170006ESE_, symObjAddr: 0xE610, symBinAddr: 0x100010830, symSize: 0x34 }
  - { offsetInCU: 0x287AC, offset: 0x287AC, size: 0x8, addend: 0x0, symName: __ZNSt3__112__hash_tableINS_17__hash_value_typeINS_12basic_stringIcNS_11char_traitsIcEENS_9allocatorIcEEEES7_EENS_22__unordered_map_hasherIS7_S8_NS_4hashIS7_EENS_8equal_toIS7_EELb1EEENS_21__unordered_map_equalIS7_S8_SD_SB_Lb1EEENS5_IS8_EEE3endEv, symObjAddr: 0xE644, symBinAddr: 0x100010864, symSize: 0x2C }
  - { offsetInCU: 0x287D4, offset: 0x287D4, size: 0x8, addend: 0x0, symName: __ZNSt3__119__hash_map_iteratorINS_15__hash_iteratorIPNS_11__hash_nodeINS_17__hash_value_typeINS_12basic_stringIcNS_11char_traitsIcEENS_9allocatorIcEEEES9_EEPvEEEEEC2B8ue170006ESE_, symObjAddr: 0xE670, symBinAddr: 0x100010890, symSize: 0x20 }
  - { offsetInCU: 0x2880D, offset: 0x2880D, size: 0x8, addend: 0x0, symName: __ZNSt3__114pointer_traitsIPNS_4pairIKNS_12basic_stringIcNS_11char_traitsIcEENS_9allocatorIcEEEES7_EEE10pointer_toB8ue170006ERS9_, symObjAddr: 0xE6F4, symBinAddr: 0x100010914, symSize: 0x14 }
  - { offsetInCU: 0x28830, offset: 0x28830, size: 0x8, addend: 0x0, symName: __ZNSt3__112__hash_tableINS_17__hash_value_typeIiP6ssl_stEENS_22__unordered_map_hasherIiS4_NS_4hashIiEENS_8equal_toIiEELb1EEENS_21__unordered_map_equalIiS4_S9_S7_Lb1EEENS_9allocatorIS4_EEE4findIiEENS_15__hash_iteratorIPNS_11__hash_nodeIS4_PvEEEERKT_, symObjAddr: 0xE708, symBinAddr: 0x100010928, symSize: 0x1B0 }
  - { offsetInCU: 0x288BA, offset: 0x288BA, size: 0x8, addend: 0x0, symName: __ZNSt3__119__hash_map_iteratorINS_15__hash_iteratorIPNS_11__hash_nodeINS_17__hash_value_typeIiP6ssl_stEEPvEEEEEC1B8ue170006ESA_, symObjAddr: 0xE8B8, symBinAddr: 0x100010AD8, symSize: 0x34 }
  - { offsetInCU: 0x288F3, offset: 0x288F3, size: 0x8, addend: 0x0, symName: __ZNSt3__112__hash_tableINS_17__hash_value_typeIiP6ssl_stEENS_22__unordered_map_hasherIiS4_NS_4hashIiEENS_8equal_toIiEELb1EEENS_21__unordered_map_equalIiS4_S9_S7_Lb1EEENS_9allocatorIS4_EEE3endEv, symObjAddr: 0xE8EC, symBinAddr: 0x100010B0C, symSize: 0x2C }
  - { offsetInCU: 0x2891B, offset: 0x2891B, size: 0x8, addend: 0x0, symName: __ZNSt3__119__hash_map_iteratorINS_15__hash_iteratorIPNS_11__hash_nodeINS_17__hash_value_typeIiP6ssl_stEEPvEEEEEC2B8ue170006ESA_, symObjAddr: 0xE918, symBinAddr: 0x100010B38, symSize: 0x20 }
  - { offsetInCU: 0x28954, offset: 0x28954, size: 0x8, addend: 0x0, symName: __ZNSt3__114pointer_traitsIPNS_4pairIKiP6ssl_stEEE10pointer_toB8ue170006ERS5_, symObjAddr: 0xE968, symBinAddr: 0x100010B88, symSize: 0x14 }
  - { offsetInCU: 0x28977, offset: 0x28977, size: 0x8, addend: 0x0, symName: __ZNSt3__112__hash_tableINS_17__hash_value_typeIiP6ssl_stEENS_22__unordered_map_hasherIiS4_NS_4hashIiEENS_8equal_toIiEELb1EEENS_21__unordered_map_equalIiS4_S9_S7_Lb1EEENS_9allocatorIS4_EEE14__erase_uniqueIiEEmRKT_, symObjAddr: 0xE97C, symBinAddr: 0x100010B9C, symSize: 0x98 }
  - { offsetInCU: 0x289C6, offset: 0x289C6, size: 0x8, addend: 0x0, symName: __ZNSt3__112__hash_tableINS_17__hash_value_typeIiP6ssl_stEENS_22__unordered_map_hasherIiS4_NS_4hashIiEENS_8equal_toIiEELb1EEENS_21__unordered_map_equalIiS4_S9_S7_Lb1EEENS_9allocatorIS4_EEE5eraseENS_21__hash_const_iteratorIPNS_11__hash_nodeIS4_PvEEEE, symObjAddr: 0xEA14, symBinAddr: 0x100010C34, symSize: 0x70 }
  - { offsetInCU: 0x28A1B, offset: 0x28A1B, size: 0x8, addend: 0x0, symName: __ZNSt3__121__hash_const_iteratorIPNS_11__hash_nodeINS_17__hash_value_typeIiP6ssl_stEEPvEEEC1B8ue170006ERKNS_15__hash_iteratorIS8_EE, symObjAddr: 0xEA84, symBinAddr: 0x100010CA4, symSize: 0x34 }
  - { offsetInCU: 0x28A54, offset: 0x28A54, size: 0x8, addend: 0x0, symName: __ZNSt3__115__hash_iteratorIPNS_11__hash_nodeINS_17__hash_value_typeIiP6ssl_stEEPvEEEppB8ue170006Ev, symObjAddr: 0xEAB8, symBinAddr: 0x100010CD8, symSize: 0x20 }
  - { offsetInCU: 0x28A7A, offset: 0x28A7A, size: 0x8, addend: 0x0, symName: __ZNSt3__112__hash_tableINS_17__hash_value_typeIiP6ssl_stEENS_22__unordered_map_hasherIiS4_NS_4hashIiEENS_8equal_toIiEELb1EEENS_21__unordered_map_equalIiS4_S9_S7_Lb1EEENS_9allocatorIS4_EEE6removeENS_21__hash_const_iteratorIPNS_11__hash_nodeIS4_PvEEEE, symObjAddr: 0xEAD8, symBinAddr: 0x100010CF8, symSize: 0x220 }
  - { offsetInCU: 0x28B0B, offset: 0x28B0B, size: 0x8, addend: 0x0, symName: __ZNSt3__121__hash_const_iteratorIPNS_11__hash_nodeINS_17__hash_value_typeIiP6ssl_stEEPvEEEC2B8ue170006ERKNS_15__hash_iteratorIS8_EE, symObjAddr: 0xECF8, symBinAddr: 0x100010F18, symSize: 0x24 }
  - { offsetInCU: 0x28B44, offset: 0x28B44, size: 0x8, addend: 0x0, symName: __ZNSt3__112__hash_tableINS_17__hash_value_typeIiNS_12basic_stringIcNS_11char_traitsIcEENS_9allocatorIcEEEEEENS_22__unordered_map_hasherIiS8_NS_4hashIiEENS_8equal_toIiEELb1EEENS_21__unordered_map_equalIiS8_SD_SB_Lb1EEENS5_IS8_EEE14__erase_uniqueIiEEmRKT_, symObjAddr: 0xED1C, symBinAddr: 0x100010F3C, symSize: 0x98 }
  - { offsetInCU: 0x28B93, offset: 0x28B93, size: 0x8, addend: 0x0, symName: __ZNSt3__112__hash_tableINS_17__hash_value_typeIiNS_12basic_stringIcNS_11char_traitsIcEENS_9allocatorIcEEEEEENS_22__unordered_map_hasherIiS8_NS_4hashIiEENS_8equal_toIiEELb1EEENS_21__unordered_map_equalIiS8_SD_SB_Lb1EEENS5_IS8_EEE4findIiEENS_15__hash_iteratorIPNS_11__hash_nodeIS8_PvEEEERKT_, symObjAddr: 0xEDB4, symBinAddr: 0x100010FD4, symSize: 0x1B0 }
  - { offsetInCU: 0x28C1D, offset: 0x28C1D, size: 0x8, addend: 0x0, symName: __ZNSt3__112__hash_tableINS_17__hash_value_typeIiNS_12basic_stringIcNS_11char_traitsIcEENS_9allocatorIcEEEEEENS_22__unordered_map_hasherIiS8_NS_4hashIiEENS_8equal_toIiEELb1EEENS_21__unordered_map_equalIiS8_SD_SB_Lb1EEENS5_IS8_EEE5eraseENS_21__hash_const_iteratorIPNS_11__hash_nodeIS8_PvEEEE, symObjAddr: 0xEF64, symBinAddr: 0x100011184, symSize: 0x70 }
  - { offsetInCU: 0x28C72, offset: 0x28C72, size: 0x8, addend: 0x0, symName: __ZNSt3__121__hash_const_iteratorIPNS_11__hash_nodeINS_17__hash_value_typeIiNS_12basic_stringIcNS_11char_traitsIcEENS_9allocatorIcEEEEEEPvEEEC1B8ue170006ERKNS_15__hash_iteratorISC_EE, symObjAddr: 0xEFD4, symBinAddr: 0x1000111F4, symSize: 0x34 }
  - { offsetInCU: 0x28CAB, offset: 0x28CAB, size: 0x8, addend: 0x0, symName: __ZNSt3__112__hash_tableINS_17__hash_value_typeIiNS_12basic_stringIcNS_11char_traitsIcEENS_9allocatorIcEEEEEENS_22__unordered_map_hasherIiS8_NS_4hashIiEENS_8equal_toIiEELb1EEENS_21__unordered_map_equalIiS8_SD_SB_Lb1EEENS5_IS8_EEE6removeENS_21__hash_const_iteratorIPNS_11__hash_nodeIS8_PvEEEE, symObjAddr: 0xF008, symBinAddr: 0x100011228, symSize: 0x220 }
  - { offsetInCU: 0x28D3C, offset: 0x28D3C, size: 0x8, addend: 0x0, symName: __ZNSt3__121__hash_const_iteratorIPNS_11__hash_nodeINS_17__hash_value_typeIiNS_12basic_stringIcNS_11char_traitsIcEENS_9allocatorIcEEEEEEPvEEEC2B8ue170006ERKNS_15__hash_iteratorISC_EE, symObjAddr: 0xF228, symBinAddr: 0x100011448, symSize: 0x24 }
  - { offsetInCU: 0x28D75, offset: 0x28D75, size: 0x8, addend: 0x0, symName: __ZNSt3__16threadC2IRFviEJRiEvEEOT_DpOT0_, symObjAddr: 0xF24C, symBinAddr: 0x10001146C, symSize: 0x150 }
  - { offsetInCU: 0x28E00, offset: 0x28E00, size: 0x8, addend: 0x0, symName: __ZNSt3__110unique_ptrINS_15__thread_structENS_14default_deleteIS1_EEEC1B8ue170006ILb1EvEEPS1_, symObjAddr: 0xF39C, symBinAddr: 0x1000115BC, symSize: 0x34 }
  - { offsetInCU: 0x28E43, offset: 0x28E43, size: 0x8, addend: 0x0, symName: __ZNSt3__15tupleIJNS_10unique_ptrINS_15__thread_structENS_14default_deleteIS2_EEEEPFviEiEEC1B8ue170006IJS5_RS6_RiELi0EEEDpOT_, symObjAddr: 0xF3D0, symBinAddr: 0x1000115F0, symSize: 0x44 }
  - { offsetInCU: 0x28F46, offset: 0x28F46, size: 0x8, addend: 0x0, symName: __ZNSt3__110unique_ptrINS_5tupleIJNS0_INS_15__thread_structENS_14default_deleteIS2_EEEEPFviEiEEENS3_IS8_EEEC1B8ue170006ILb1EvEEPS8_, symObjAddr: 0xF414, symBinAddr: 0x100011634, symSize: 0x34 }
  - { offsetInCU: 0x28F89, offset: 0x28F89, size: 0x8, addend: 0x0, symName: __ZNKSt3__110unique_ptrINS_5tupleIJNS0_INS_15__thread_structENS_14default_deleteIS2_EEEEPFviEiEEENS3_IS8_EEE3getB8ue170006Ev, symObjAddr: 0xF510, symBinAddr: 0x100011730, symSize: 0x28 }
  - { offsetInCU: 0x28FAF, offset: 0x28FAF, size: 0x8, addend: 0x0, symName: __ZNSt3__110unique_ptrINS_5tupleIJNS0_INS_15__thread_structENS_14default_deleteIS2_EEEEPFviEiEEENS3_IS8_EEE7releaseB8ue170006Ev, symObjAddr: 0xF538, symBinAddr: 0x100011758, symSize: 0x44 }
  - { offsetInCU: 0x28FE4, offset: 0x28FE4, size: 0x8, addend: 0x0, symName: __ZNSt3__110unique_ptrINS_5tupleIJNS0_INS_15__thread_structENS_14default_deleteIS2_EEEEPFviEiEEENS3_IS8_EEED1B8ue170006Ev, symObjAddr: 0xF57C, symBinAddr: 0x10001179C, symSize: 0x2C }
  - { offsetInCU: 0x2900E, offset: 0x2900E, size: 0x8, addend: 0x0, symName: __ZNSt3__110unique_ptrINS_15__thread_structENS_14default_deleteIS1_EEED1B8ue170006Ev, symObjAddr: 0xF5A8, symBinAddr: 0x1000117C8, symSize: 0x2C }
  - { offsetInCU: 0x29038, offset: 0x29038, size: 0x8, addend: 0x0, symName: __ZNSt3__110unique_ptrINS_15__thread_structENS_14default_deleteIS1_EEEC2B8ue170006ILb1EvEEPS1_, symObjAddr: 0xF5D4, symBinAddr: 0x1000117F4, symSize: 0x44 }
  - { offsetInCU: 0x2907B, offset: 0x2907B, size: 0x8, addend: 0x0, symName: __ZNSt3__117__compressed_pairIPNS_15__thread_structENS_14default_deleteIS1_EEEC1B8ue170006IRS2_NS_16__value_init_tagEEEOT_OT0_, symObjAddr: 0xF618, symBinAddr: 0x100011838, symSize: 0x3C }
  - { offsetInCU: 0x290D3, offset: 0x290D3, size: 0x8, addend: 0x0, symName: __ZNSt3__117__compressed_pairIPNS_15__thread_structENS_14default_deleteIS1_EEEC2B8ue170006IRS2_NS_16__value_init_tagEEEOT_OT0_, symObjAddr: 0xF654, symBinAddr: 0x100011874, symSize: 0x40 }
  - { offsetInCU: 0x2912B, offset: 0x2912B, size: 0x8, addend: 0x0, symName: __ZNSt3__122__compressed_pair_elemIPNS_15__thread_structELi0ELb0EEC2B8ue170006IRS2_vEEOT_, symObjAddr: 0xF694, symBinAddr: 0x1000118B4, symSize: 0x24 }
  - { offsetInCU: 0x2916D, offset: 0x2916D, size: 0x8, addend: 0x0, symName: __ZNSt3__122__compressed_pair_elemINS_14default_deleteINS_15__thread_structEEELi1ELb1EEC2B8ue170006ENS_16__value_init_tagE, symObjAddr: 0xF6B8, symBinAddr: 0x1000118D8, symSize: 0x14 }
  - { offsetInCU: 0x291A1, offset: 0x291A1, size: 0x8, addend: 0x0, symName: __ZNSt3__15tupleIJNS_10unique_ptrINS_15__thread_structENS_14default_deleteIS2_EEEEPFviEiEEC2B8ue170006IJS5_RS6_RiELi0EEEDpOT_, symObjAddr: 0xF6CC, symBinAddr: 0x1000118EC, symSize: 0x44 }
  - { offsetInCU: 0x29213, offset: 0x29213, size: 0x8, addend: 0x0, symName: __ZNSt3__112__tuple_implINS_15__tuple_indicesIJLm0ELm1ELm2EEEEJNS_10unique_ptrINS_15__thread_structENS_14default_deleteIS4_EEEEPFviEiEEC1B8ue170006IJLm0ELm1ELm2EEJS7_S9_iEJEJEJS7_RS8_RiEEENS1_IJXspT_EEEENS_13__tuple_typesIJDpT0_EEENS1_IJXspT1_EEEENSF_IJDpT2_EEEDpOT3_, symObjAddr: 0xF710, symBinAddr: 0x100011930, symSize: 0x44 }
  - { offsetInCU: 0x292E6, offset: 0x292E6, size: 0x8, addend: 0x0, symName: __ZNSt3__112__tuple_implINS_15__tuple_indicesIJLm0ELm1ELm2EEEEJNS_10unique_ptrINS_15__thread_structENS_14default_deleteIS4_EEEEPFviEiEEC2B8ue170006IJLm0ELm1ELm2EEJS7_S9_iEJEJEJS7_RS8_RiEEENS1_IJXspT_EEEENS_13__tuple_typesIJDpT0_EEENS1_IJXspT1_EEEENSF_IJDpT2_EEEDpOT3_, symObjAddr: 0xF754, symBinAddr: 0x100011974, symSize: 0x5C }
  - { offsetInCU: 0x293B9, offset: 0x293B9, size: 0x8, addend: 0x0, symName: __ZNSt3__112__tuple_leafILm0ENS_10unique_ptrINS_15__thread_structENS_14default_deleteIS2_EEEELb0EEC2B8ue170006IS5_vEEOT_, symObjAddr: 0xF7B0, symBinAddr: 0x1000119D0, symSize: 0x34 }
  - { offsetInCU: 0x293FC, offset: 0x293FC, size: 0x8, addend: 0x0, symName: __ZNSt3__112__tuple_leafILm1EPFviELb0EEC2B8ue170006IRS1_vEEOT_, symObjAddr: 0xF7E4, symBinAddr: 0x100011A04, symSize: 0x20 }
  - { offsetInCU: 0x2943F, offset: 0x2943F, size: 0x8, addend: 0x0, symName: __ZNSt3__112__tuple_leafILm2EiLb0EEC2B8ue170006IRivEEOT_, symObjAddr: 0xF804, symBinAddr: 0x100011A24, symSize: 0x24 }
  - { offsetInCU: 0x29482, offset: 0x29482, size: 0x8, addend: 0x0, symName: __ZNSt3__110unique_ptrINS_15__thread_structENS_14default_deleteIS1_EEEC1B8ue170006EOS4_, symObjAddr: 0xF828, symBinAddr: 0x100011A48, symSize: 0x34 }
  - { offsetInCU: 0x294BA, offset: 0x294BA, size: 0x8, addend: 0x0, symName: __ZNSt3__110unique_ptrINS_15__thread_structENS_14default_deleteIS1_EEEC2B8ue170006EOS4_, symObjAddr: 0xF85C, symBinAddr: 0x100011A7C, symSize: 0x60 }
  - { offsetInCU: 0x294F2, offset: 0x294F2, size: 0x8, addend: 0x0, symName: __ZNSt3__110unique_ptrINS_15__thread_structENS_14default_deleteIS1_EEE7releaseB8ue170006Ev, symObjAddr: 0xF8BC, symBinAddr: 0x100011ADC, symSize: 0x44 }
  - { offsetInCU: 0x29527, offset: 0x29527, size: 0x8, addend: 0x0, symName: __ZNSt3__110unique_ptrINS_15__thread_structENS_14default_deleteIS1_EEE11get_deleterB8ue170006Ev, symObjAddr: 0xF900, symBinAddr: 0x100011B20, symSize: 0x24 }
  - { offsetInCU: 0x29557, offset: 0x29557, size: 0x8, addend: 0x0, symName: __ZNSt3__117__compressed_pairIPNS_15__thread_structENS_14default_deleteIS1_EEEC1B8ue170006IS2_S4_EEOT_OT0_, symObjAddr: 0xF924, symBinAddr: 0x100011B44, symSize: 0x3C }
  - { offsetInCU: 0x295AF, offset: 0x295AF, size: 0x8, addend: 0x0, symName: __ZNSt3__117__compressed_pairIPNS_15__thread_structENS_14default_deleteIS1_EEE5firstB8ue170006Ev, symObjAddr: 0xF960, symBinAddr: 0x100011B80, symSize: 0x24 }
  - { offsetInCU: 0x295D5, offset: 0x295D5, size: 0x8, addend: 0x0, symName: __ZNSt3__122__compressed_pair_elemIPNS_15__thread_structELi0ELb0EE5__getB8ue170006Ev, symObjAddr: 0xF984, symBinAddr: 0x100011BA4, symSize: 0x14 }
  - { offsetInCU: 0x295FB, offset: 0x295FB, size: 0x8, addend: 0x0, symName: __ZNSt3__117__compressed_pairIPNS_15__thread_structENS_14default_deleteIS1_EEE6secondB8ue170006Ev, symObjAddr: 0xF998, symBinAddr: 0x100011BB8, symSize: 0x24 }
  - { offsetInCU: 0x29621, offset: 0x29621, size: 0x8, addend: 0x0, symName: __ZNSt3__122__compressed_pair_elemINS_14default_deleteINS_15__thread_structEEELi1ELb1EE5__getB8ue170006Ev, symObjAddr: 0xF9BC, symBinAddr: 0x100011BDC, symSize: 0x14 }
  - { offsetInCU: 0x29647, offset: 0x29647, size: 0x8, addend: 0x0, symName: __ZNSt3__117__compressed_pairIPNS_15__thread_structENS_14default_deleteIS1_EEEC2B8ue170006IS2_S4_EEOT_OT0_, symObjAddr: 0xF9D0, symBinAddr: 0x100011BF0, symSize: 0x44 }
  - { offsetInCU: 0x2969F, offset: 0x2969F, size: 0x8, addend: 0x0, symName: __ZNSt3__122__compressed_pair_elemIPNS_15__thread_structELi0ELb0EEC2B8ue170006IS2_vEEOT_, symObjAddr: 0xFA14, symBinAddr: 0x100011C34, symSize: 0x24 }
  - { offsetInCU: 0x296E1, offset: 0x296E1, size: 0x8, addend: 0x0, symName: __ZNSt3__122__compressed_pair_elemINS_14default_deleteINS_15__thread_structEEELi1ELb1EEC2B8ue170006IS3_vEEOT_, symObjAddr: 0xFA38, symBinAddr: 0x100011C58, symSize: 0x18 }
  - { offsetInCU: 0x29723, offset: 0x29723, size: 0x8, addend: 0x0, symName: __ZNSt3__110unique_ptrINS_5tupleIJNS0_INS_15__thread_structENS_14default_deleteIS2_EEEEPFviEiEEENS3_IS8_EEEC2B8ue170006ILb1EvEEPS8_, symObjAddr: 0xFA50, symBinAddr: 0x100011C70, symSize: 0x44 }
  - { offsetInCU: 0x29766, offset: 0x29766, size: 0x8, addend: 0x0, symName: __ZNSt3__117__compressed_pairIPNS_5tupleIJNS_10unique_ptrINS_15__thread_structENS_14default_deleteIS3_EEEEPFviEiEEENS4_IS9_EEEC1B8ue170006IRSA_NS_16__value_init_tagEEEOT_OT0_, symObjAddr: 0xFA94, symBinAddr: 0x100011CB4, symSize: 0x3C }
  - { offsetInCU: 0x297BE, offset: 0x297BE, size: 0x8, addend: 0x0, symName: __ZNSt3__117__compressed_pairIPNS_5tupleIJNS_10unique_ptrINS_15__thread_structENS_14default_deleteIS3_EEEEPFviEiEEENS4_IS9_EEEC2B8ue170006IRSA_NS_16__value_init_tagEEEOT_OT0_, symObjAddr: 0xFAD0, symBinAddr: 0x100011CF0, symSize: 0x40 }
  - { offsetInCU: 0x29816, offset: 0x29816, size: 0x8, addend: 0x0, symName: __ZNSt3__122__compressed_pair_elemIPNS_5tupleIJNS_10unique_ptrINS_15__thread_structENS_14default_deleteIS3_EEEEPFviEiEEELi0ELb0EEC2B8ue170006IRSA_vEEOT_, symObjAddr: 0xFB10, symBinAddr: 0x100011D30, symSize: 0x24 }
  - { offsetInCU: 0x29858, offset: 0x29858, size: 0x8, addend: 0x0, symName: __ZNSt3__122__compressed_pair_elemINS_14default_deleteINS_5tupleIJNS_10unique_ptrINS_15__thread_structENS1_IS4_EEEEPFviEiEEEEELi1ELb1EEC2B8ue170006ENS_16__value_init_tagE, symObjAddr: 0xFB34, symBinAddr: 0x100011D54, symSize: 0x14 }
  - { offsetInCU: 0x298BB, offset: 0x298BB, size: 0x8, addend: 0x0, symName: __ZNSt3__121__thread_specific_ptrINS_15__thread_structEE11set_pointerEPS1_, symObjAddr: 0xFB48, symBinAddr: 0x100011D68, symSize: 0x30 }
  - { offsetInCU: 0x298F0, offset: 0x298F0, size: 0x8, addend: 0x0, symName: __ZNSt3__112__tuple_leafILm0ENS_10unique_ptrINS_15__thread_structENS_14default_deleteIS2_EEEELb0EE3getB8ue170006Ev, symObjAddr: 0xFC04, symBinAddr: 0x100011E24, symSize: 0x14 }
  - { offsetInCU: 0x29916, offset: 0x29916, size: 0x8, addend: 0x0, symName: __ZNSt3__112__tuple_leafILm1EPFviELb0EE3getB8ue170006Ev, symObjAddr: 0xFC9C, symBinAddr: 0x100011EBC, symSize: 0x14 }
  - { offsetInCU: 0x2993C, offset: 0x2993C, size: 0x8, addend: 0x0, symName: __ZNSt3__112__tuple_leafILm2EiLb0EE3getB8ue170006Ev, symObjAddr: 0xFCB0, symBinAddr: 0x100011ED0, symSize: 0x14 }
  - { offsetInCU: 0x29962, offset: 0x29962, size: 0x8, addend: 0x0, symName: __ZNKSt3__117__compressed_pairIPNS_5tupleIJNS_10unique_ptrINS_15__thread_structENS_14default_deleteIS3_EEEEPFviEiEEENS4_IS9_EEE5firstB8ue170006Ev, symObjAddr: 0xFCC4, symBinAddr: 0x100011EE4, symSize: 0x24 }
  - { offsetInCU: 0x29988, offset: 0x29988, size: 0x8, addend: 0x0, symName: __ZNKSt3__122__compressed_pair_elemIPNS_5tupleIJNS_10unique_ptrINS_15__thread_structENS_14default_deleteIS3_EEEEPFviEiEEELi0ELb0EE5__getB8ue170006Ev, symObjAddr: 0xFCE8, symBinAddr: 0x100011F08, symSize: 0x14 }
  - { offsetInCU: 0x299AE, offset: 0x299AE, size: 0x8, addend: 0x0, symName: __ZNSt3__117__compressed_pairIPNS_5tupleIJNS_10unique_ptrINS_15__thread_structENS_14default_deleteIS3_EEEEPFviEiEEENS4_IS9_EEE5firstB8ue170006Ev, symObjAddr: 0xFCFC, symBinAddr: 0x100011F1C, symSize: 0x24 }
  - { offsetInCU: 0x299D4, offset: 0x299D4, size: 0x8, addend: 0x0, symName: __ZNSt3__122__compressed_pair_elemIPNS_5tupleIJNS_10unique_ptrINS_15__thread_structENS_14default_deleteIS3_EEEEPFviEiEEELi0ELb0EE5__getB8ue170006Ev, symObjAddr: 0xFD20, symBinAddr: 0x100011F40, symSize: 0x14 }
  - { offsetInCU: 0x299FA, offset: 0x299FA, size: 0x8, addend: 0x0, symName: __ZNSt3__110unique_ptrINS_5tupleIJNS0_INS_15__thread_structENS_14default_deleteIS2_EEEEPFviEiEEENS3_IS8_EEED2B8ue170006Ev, symObjAddr: 0xFD34, symBinAddr: 0x100011F54, symSize: 0x30 }
  - { offsetInCU: 0x29A24, offset: 0x29A24, size: 0x8, addend: 0x0, symName: __ZNSt3__110unique_ptrINS_5tupleIJNS0_INS_15__thread_structENS_14default_deleteIS2_EEEEPFviEiEEENS3_IS8_EEE5resetB8ue170006EPS8_, symObjAddr: 0xFD64, symBinAddr: 0x100011F84, symSize: 0x78 }
  - { offsetInCU: 0x29A68, offset: 0x29A68, size: 0x8, addend: 0x0, symName: __ZNSt3__117__compressed_pairIPNS_5tupleIJNS_10unique_ptrINS_15__thread_structENS_14default_deleteIS3_EEEEPFviEiEEENS4_IS9_EEE6secondB8ue170006Ev, symObjAddr: 0xFDDC, symBinAddr: 0x100011FFC, symSize: 0x24 }
  - { offsetInCU: 0x29A8E, offset: 0x29A8E, size: 0x8, addend: 0x0, symName: __ZNKSt3__114default_deleteINS_5tupleIJNS_10unique_ptrINS_15__thread_structENS0_IS3_EEEEPFviEiEEEEclB8ue170006EPS8_, symObjAddr: 0xFE00, symBinAddr: 0x100012020, symSize: 0x4C }
  - { offsetInCU: 0x29AC2, offset: 0x29AC2, size: 0x8, addend: 0x0, symName: __ZNSt3__122__compressed_pair_elemINS_14default_deleteINS_5tupleIJNS_10unique_ptrINS_15__thread_structENS1_IS4_EEEEPFviEiEEEEELi1ELb1EE5__getB8ue170006Ev, symObjAddr: 0xFE4C, symBinAddr: 0x10001206C, symSize: 0x14 }
  - { offsetInCU: 0x29AE8, offset: 0x29AE8, size: 0x8, addend: 0x0, symName: __ZNSt3__15tupleIJNS_10unique_ptrINS_15__thread_structENS_14default_deleteIS2_EEEEPFviEiEED1Ev, symObjAddr: 0xFE60, symBinAddr: 0x100012080, symSize: 0x2C }
  - { offsetInCU: 0x29B15, offset: 0x29B15, size: 0x8, addend: 0x0, symName: __ZNSt3__15tupleIJNS_10unique_ptrINS_15__thread_structENS_14default_deleteIS2_EEEEPFviEiEED2Ev, symObjAddr: 0xFE8C, symBinAddr: 0x1000120AC, symSize: 0x2C }
  - { offsetInCU: 0x29B42, offset: 0x29B42, size: 0x8, addend: 0x0, symName: __ZNSt3__112__tuple_implINS_15__tuple_indicesIJLm0ELm1ELm2EEEEJNS_10unique_ptrINS_15__thread_structENS_14default_deleteIS4_EEEEPFviEiEED1Ev, symObjAddr: 0xFEB8, symBinAddr: 0x1000120D8, symSize: 0x2C }
  - { offsetInCU: 0x29B6F, offset: 0x29B6F, size: 0x8, addend: 0x0, symName: __ZNSt3__112__tuple_implINS_15__tuple_indicesIJLm0ELm1ELm2EEEEJNS_10unique_ptrINS_15__thread_structENS_14default_deleteIS4_EEEEPFviEiEED2Ev, symObjAddr: 0xFEE4, symBinAddr: 0x100012104, symSize: 0x2C }
  - { offsetInCU: 0x29B9C, offset: 0x29B9C, size: 0x8, addend: 0x0, symName: __ZNSt3__112__tuple_leafILm0ENS_10unique_ptrINS_15__thread_structENS_14default_deleteIS2_EEEELb0EED2Ev, symObjAddr: 0xFF10, symBinAddr: 0x100012130, symSize: 0x2C }
  - { offsetInCU: 0x29BC9, offset: 0x29BC9, size: 0x8, addend: 0x0, symName: __ZNSt3__110unique_ptrINS_15__thread_structENS_14default_deleteIS1_EEED2B8ue170006Ev, symObjAddr: 0xFF3C, symBinAddr: 0x10001215C, symSize: 0x30 }
  - { offsetInCU: 0x29BF3, offset: 0x29BF3, size: 0x8, addend: 0x0, symName: __ZNSt3__110unique_ptrINS_15__thread_structENS_14default_deleteIS1_EEE5resetB8ue170006EPS1_, symObjAddr: 0xFF6C, symBinAddr: 0x10001218C, symSize: 0x78 }
  - { offsetInCU: 0x29C37, offset: 0x29C37, size: 0x8, addend: 0x0, symName: __ZNKSt3__114default_deleteINS_15__thread_structEEclB8ue170006EPS1_, symObjAddr: 0xFFE4, symBinAddr: 0x100012204, symSize: 0x4C }
...
